ARM GAS  /tmp/cctXC39Y.s 			page 1


   1              		.cpu cortex-m3
   2              		.eabi_attribute 20, 1
   3              		.eabi_attribute 21, 1
   4              		.eabi_attribute 23, 3
   5              		.eabi_attribute 24, 1
   6              		.eabi_attribute 25, 1
   7              		.eabi_attribute 26, 1
   8              		.eabi_attribute 30, 1
   9              		.eabi_attribute 34, 1
  10              		.eabi_attribute 18, 4
  11              		.file	"heap_4.c"
  12              		.text
  13              	.Ltext0:
  14              		.cfi_sections	.debug_frame
  15              		.section	.text.prvHeapInit,"ax",%progbits
  16              		.align	1
  17              		.arch armv7-m
  18              		.syntax unified
  19              		.thumb
  20              		.thumb_func
  21              		.fpu softvfp
  23              	prvHeapInit:
  24              	.LFB9:
  25              		.file 1 "base/os/FreeRTOS/Source/portable/MemMang/heap_4.c"
   1:base/os/FreeRTOS/Source/portable/MemMang/heap_4.c **** /*
   2:base/os/FreeRTOS/Source/portable/MemMang/heap_4.c ****  * FreeRTOS Kernel V10.0.1
   3:base/os/FreeRTOS/Source/portable/MemMang/heap_4.c ****  * Copyright (C) 2017 Amazon.com, Inc. or its affiliates.  All Rights Reserved.
   4:base/os/FreeRTOS/Source/portable/MemMang/heap_4.c ****  *
   5:base/os/FreeRTOS/Source/portable/MemMang/heap_4.c ****  * Permission is hereby granted, free of charge, to any person obtaining a copy of
   6:base/os/FreeRTOS/Source/portable/MemMang/heap_4.c ****  * this software and associated documentation files (the "Software"), to deal in
   7:base/os/FreeRTOS/Source/portable/MemMang/heap_4.c ****  * the Software without restriction, including without limitation the rights to
   8:base/os/FreeRTOS/Source/portable/MemMang/heap_4.c ****  * use, copy, modify, merge, publish, distribute, sublicense, and/or sell copies of
   9:base/os/FreeRTOS/Source/portable/MemMang/heap_4.c ****  * the Software, and to permit persons to whom the Software is furnished to do so,
  10:base/os/FreeRTOS/Source/portable/MemMang/heap_4.c ****  * subject to the following conditions:
  11:base/os/FreeRTOS/Source/portable/MemMang/heap_4.c ****  *
  12:base/os/FreeRTOS/Source/portable/MemMang/heap_4.c ****  * The above copyright notice and this permission notice shall be included in all
  13:base/os/FreeRTOS/Source/portable/MemMang/heap_4.c ****  * copies or substantial portions of the Software.
  14:base/os/FreeRTOS/Source/portable/MemMang/heap_4.c ****  *
  15:base/os/FreeRTOS/Source/portable/MemMang/heap_4.c ****  * THE SOFTWARE IS PROVIDED "AS IS", WITHOUT WARRANTY OF ANY KIND, EXPRESS OR
  16:base/os/FreeRTOS/Source/portable/MemMang/heap_4.c ****  * IMPLIED, INCLUDING BUT NOT LIMITED TO THE WARRANTIES OF MERCHANTABILITY, FITNESS
  17:base/os/FreeRTOS/Source/portable/MemMang/heap_4.c ****  * FOR A PARTICULAR PURPOSE AND NONINFRINGEMENT. IN NO EVENT SHALL THE AUTHORS OR
  18:base/os/FreeRTOS/Source/portable/MemMang/heap_4.c ****  * COPYRIGHT HOLDERS BE LIABLE FOR ANY CLAIM, DAMAGES OR OTHER LIABILITY, WHETHER
  19:base/os/FreeRTOS/Source/portable/MemMang/heap_4.c ****  * IN AN ACTION OF CONTRACT, TORT OR OTHERWISE, ARISING FROM, OUT OF OR IN
  20:base/os/FreeRTOS/Source/portable/MemMang/heap_4.c ****  * CONNECTION WITH THE SOFTWARE OR THE USE OR OTHER DEALINGS IN THE SOFTWARE.
  21:base/os/FreeRTOS/Source/portable/MemMang/heap_4.c ****  *
  22:base/os/FreeRTOS/Source/portable/MemMang/heap_4.c ****  * http://www.FreeRTOS.org
  23:base/os/FreeRTOS/Source/portable/MemMang/heap_4.c ****  * http://aws.amazon.com/freertos
  24:base/os/FreeRTOS/Source/portable/MemMang/heap_4.c ****  *
  25:base/os/FreeRTOS/Source/portable/MemMang/heap_4.c ****  * 1 tab == 4 spaces!
  26:base/os/FreeRTOS/Source/portable/MemMang/heap_4.c ****  */
  27:base/os/FreeRTOS/Source/portable/MemMang/heap_4.c **** 
  28:base/os/FreeRTOS/Source/portable/MemMang/heap_4.c **** /*
  29:base/os/FreeRTOS/Source/portable/MemMang/heap_4.c ****  * A sample implementation of pvPortMalloc() and vPortFree() that combines
  30:base/os/FreeRTOS/Source/portable/MemMang/heap_4.c ****  * (coalescences) adjacent memory blocks as they are freed, and in so doing
  31:base/os/FreeRTOS/Source/portable/MemMang/heap_4.c ****  * limits memory fragmentation.
  32:base/os/FreeRTOS/Source/portable/MemMang/heap_4.c ****  *
  33:base/os/FreeRTOS/Source/portable/MemMang/heap_4.c ****  * See heap_1.c, heap_2.c and heap_3.c for alternative implementations, and the
ARM GAS  /tmp/cctXC39Y.s 			page 2


  34:base/os/FreeRTOS/Source/portable/MemMang/heap_4.c ****  * memory management pages of http://www.FreeRTOS.org for more information.
  35:base/os/FreeRTOS/Source/portable/MemMang/heap_4.c ****  */
  36:base/os/FreeRTOS/Source/portable/MemMang/heap_4.c **** #include <stdlib.h>
  37:base/os/FreeRTOS/Source/portable/MemMang/heap_4.c **** 
  38:base/os/FreeRTOS/Source/portable/MemMang/heap_4.c **** /* Defining MPU_WRAPPERS_INCLUDED_FROM_API_FILE prevents task.h from redefining
  39:base/os/FreeRTOS/Source/portable/MemMang/heap_4.c **** all the API functions to use the MPU wrappers.  That should only be done when
  40:base/os/FreeRTOS/Source/portable/MemMang/heap_4.c **** task.h is included from an application file. */
  41:base/os/FreeRTOS/Source/portable/MemMang/heap_4.c **** #define MPU_WRAPPERS_INCLUDED_FROM_API_FILE
  42:base/os/FreeRTOS/Source/portable/MemMang/heap_4.c **** 
  43:base/os/FreeRTOS/Source/portable/MemMang/heap_4.c **** #include "FreeRTOS.h"
  44:base/os/FreeRTOS/Source/portable/MemMang/heap_4.c **** #include "task.h"
  45:base/os/FreeRTOS/Source/portable/MemMang/heap_4.c **** 
  46:base/os/FreeRTOS/Source/portable/MemMang/heap_4.c **** #undef MPU_WRAPPERS_INCLUDED_FROM_API_FILE
  47:base/os/FreeRTOS/Source/portable/MemMang/heap_4.c **** 
  48:base/os/FreeRTOS/Source/portable/MemMang/heap_4.c **** #if( configSUPPORT_DYNAMIC_ALLOCATION == 0 )
  49:base/os/FreeRTOS/Source/portable/MemMang/heap_4.c **** 	#error This file must not be used if configSUPPORT_DYNAMIC_ALLOCATION is 0
  50:base/os/FreeRTOS/Source/portable/MemMang/heap_4.c **** #endif
  51:base/os/FreeRTOS/Source/portable/MemMang/heap_4.c **** 
  52:base/os/FreeRTOS/Source/portable/MemMang/heap_4.c **** /* Block sizes must not get too small. */
  53:base/os/FreeRTOS/Source/portable/MemMang/heap_4.c **** #define heapMINIMUM_BLOCK_SIZE	( ( size_t ) ( xHeapStructSize << 1 ) )
  54:base/os/FreeRTOS/Source/portable/MemMang/heap_4.c **** 
  55:base/os/FreeRTOS/Source/portable/MemMang/heap_4.c **** /* Assumes 8bit bytes! */
  56:base/os/FreeRTOS/Source/portable/MemMang/heap_4.c **** #define heapBITS_PER_BYTE		( ( size_t ) 8 )
  57:base/os/FreeRTOS/Source/portable/MemMang/heap_4.c **** 
  58:base/os/FreeRTOS/Source/portable/MemMang/heap_4.c **** /* Allocate the memory for the heap. */
  59:base/os/FreeRTOS/Source/portable/MemMang/heap_4.c **** #if( configAPPLICATION_ALLOCATED_HEAP == 1 )
  60:base/os/FreeRTOS/Source/portable/MemMang/heap_4.c **** 	/* The application writer has already defined the array used for the RTOS
  61:base/os/FreeRTOS/Source/portable/MemMang/heap_4.c **** 	heap - probably so it can be placed in a special segment or address. */
  62:base/os/FreeRTOS/Source/portable/MemMang/heap_4.c **** 	extern uint8_t ucHeap[ configTOTAL_HEAP_SIZE ];
  63:base/os/FreeRTOS/Source/portable/MemMang/heap_4.c **** #else
  64:base/os/FreeRTOS/Source/portable/MemMang/heap_4.c **** 	static uint8_t ucHeap[ configTOTAL_HEAP_SIZE ];
  65:base/os/FreeRTOS/Source/portable/MemMang/heap_4.c **** #endif /* configAPPLICATION_ALLOCATED_HEAP */
  66:base/os/FreeRTOS/Source/portable/MemMang/heap_4.c **** 
  67:base/os/FreeRTOS/Source/portable/MemMang/heap_4.c **** /* Define the linked list structure.  This is used to link free blocks in order
  68:base/os/FreeRTOS/Source/portable/MemMang/heap_4.c **** of their memory address. */
  69:base/os/FreeRTOS/Source/portable/MemMang/heap_4.c **** typedef struct A_BLOCK_LINK
  70:base/os/FreeRTOS/Source/portable/MemMang/heap_4.c **** {
  71:base/os/FreeRTOS/Source/portable/MemMang/heap_4.c **** 	struct A_BLOCK_LINK *pxNextFreeBlock;	/*<< The next free block in the list. */
  72:base/os/FreeRTOS/Source/portable/MemMang/heap_4.c **** 	size_t xBlockSize;						/*<< The size of the free block. */
  73:base/os/FreeRTOS/Source/portable/MemMang/heap_4.c **** } BlockLink_t;
  74:base/os/FreeRTOS/Source/portable/MemMang/heap_4.c **** 
  75:base/os/FreeRTOS/Source/portable/MemMang/heap_4.c **** /*-----------------------------------------------------------*/
  76:base/os/FreeRTOS/Source/portable/MemMang/heap_4.c **** 
  77:base/os/FreeRTOS/Source/portable/MemMang/heap_4.c **** /*
  78:base/os/FreeRTOS/Source/portable/MemMang/heap_4.c ****  * Inserts a block of memory that is being freed into the correct position in
  79:base/os/FreeRTOS/Source/portable/MemMang/heap_4.c ****  * the list of free memory blocks.  The block being freed will be merged with
  80:base/os/FreeRTOS/Source/portable/MemMang/heap_4.c ****  * the block in front it and/or the block behind it if the memory blocks are
  81:base/os/FreeRTOS/Source/portable/MemMang/heap_4.c ****  * adjacent to each other.
  82:base/os/FreeRTOS/Source/portable/MemMang/heap_4.c ****  */
  83:base/os/FreeRTOS/Source/portable/MemMang/heap_4.c **** static void prvInsertBlockIntoFreeList( BlockLink_t *pxBlockToInsert );
  84:base/os/FreeRTOS/Source/portable/MemMang/heap_4.c **** 
  85:base/os/FreeRTOS/Source/portable/MemMang/heap_4.c **** /*
  86:base/os/FreeRTOS/Source/portable/MemMang/heap_4.c ****  * Called automatically to setup the required heap structures the first time
  87:base/os/FreeRTOS/Source/portable/MemMang/heap_4.c ****  * pvPortMalloc() is called.
  88:base/os/FreeRTOS/Source/portable/MemMang/heap_4.c ****  */
  89:base/os/FreeRTOS/Source/portable/MemMang/heap_4.c **** static void prvHeapInit( void );
  90:base/os/FreeRTOS/Source/portable/MemMang/heap_4.c **** 
ARM GAS  /tmp/cctXC39Y.s 			page 3


  91:base/os/FreeRTOS/Source/portable/MemMang/heap_4.c **** /*-----------------------------------------------------------*/
  92:base/os/FreeRTOS/Source/portable/MemMang/heap_4.c **** 
  93:base/os/FreeRTOS/Source/portable/MemMang/heap_4.c **** /* The size of the structure placed at the beginning of each allocated memory
  94:base/os/FreeRTOS/Source/portable/MemMang/heap_4.c **** block must by correctly byte aligned. */
  95:base/os/FreeRTOS/Source/portable/MemMang/heap_4.c **** static const size_t xHeapStructSize	= ( sizeof( BlockLink_t ) + ( ( size_t ) ( portBYTE_ALIGNMENT -
  96:base/os/FreeRTOS/Source/portable/MemMang/heap_4.c **** 
  97:base/os/FreeRTOS/Source/portable/MemMang/heap_4.c **** /* Create a couple of list links to mark the start and end of the list. */
  98:base/os/FreeRTOS/Source/portable/MemMang/heap_4.c **** static BlockLink_t xStart, *pxEnd = NULL;
  99:base/os/FreeRTOS/Source/portable/MemMang/heap_4.c **** 
 100:base/os/FreeRTOS/Source/portable/MemMang/heap_4.c **** /* Keeps track of the number of free bytes remaining, but says nothing about
 101:base/os/FreeRTOS/Source/portable/MemMang/heap_4.c **** fragmentation. */
 102:base/os/FreeRTOS/Source/portable/MemMang/heap_4.c **** static size_t xFreeBytesRemaining = 0U;
 103:base/os/FreeRTOS/Source/portable/MemMang/heap_4.c **** static size_t xMinimumEverFreeBytesRemaining = 0U;
 104:base/os/FreeRTOS/Source/portable/MemMang/heap_4.c **** 
 105:base/os/FreeRTOS/Source/portable/MemMang/heap_4.c **** /* Gets set to the top bit of an size_t type.  When this bit in the xBlockSize
 106:base/os/FreeRTOS/Source/portable/MemMang/heap_4.c **** member of an BlockLink_t structure is set then the block belongs to the
 107:base/os/FreeRTOS/Source/portable/MemMang/heap_4.c **** application.  When the bit is free the block is still part of the free heap
 108:base/os/FreeRTOS/Source/portable/MemMang/heap_4.c **** space. */
 109:base/os/FreeRTOS/Source/portable/MemMang/heap_4.c **** static size_t xBlockAllocatedBit = 0;
 110:base/os/FreeRTOS/Source/portable/MemMang/heap_4.c **** 
 111:base/os/FreeRTOS/Source/portable/MemMang/heap_4.c **** /*-----------------------------------------------------------*/
 112:base/os/FreeRTOS/Source/portable/MemMang/heap_4.c **** 
 113:base/os/FreeRTOS/Source/portable/MemMang/heap_4.c **** void *pvPortMalloc( size_t xWantedSize )
 114:base/os/FreeRTOS/Source/portable/MemMang/heap_4.c **** {
 115:base/os/FreeRTOS/Source/portable/MemMang/heap_4.c **** BlockLink_t *pxBlock, *pxPreviousBlock, *pxNewBlockLink;
 116:base/os/FreeRTOS/Source/portable/MemMang/heap_4.c **** void *pvReturn = NULL;
 117:base/os/FreeRTOS/Source/portable/MemMang/heap_4.c **** 
 118:base/os/FreeRTOS/Source/portable/MemMang/heap_4.c **** 	vTaskSuspendAll();
 119:base/os/FreeRTOS/Source/portable/MemMang/heap_4.c **** 	{
 120:base/os/FreeRTOS/Source/portable/MemMang/heap_4.c **** 		/* If this is the first call to malloc then the heap will require
 121:base/os/FreeRTOS/Source/portable/MemMang/heap_4.c **** 		initialisation to setup the list of free blocks. */
 122:base/os/FreeRTOS/Source/portable/MemMang/heap_4.c **** 		if( pxEnd == NULL )
 123:base/os/FreeRTOS/Source/portable/MemMang/heap_4.c **** 		{
 124:base/os/FreeRTOS/Source/portable/MemMang/heap_4.c **** 			prvHeapInit();
 125:base/os/FreeRTOS/Source/portable/MemMang/heap_4.c **** 		}
 126:base/os/FreeRTOS/Source/portable/MemMang/heap_4.c **** 		else
 127:base/os/FreeRTOS/Source/portable/MemMang/heap_4.c **** 		{
 128:base/os/FreeRTOS/Source/portable/MemMang/heap_4.c **** 			mtCOVERAGE_TEST_MARKER();
 129:base/os/FreeRTOS/Source/portable/MemMang/heap_4.c **** 		}
 130:base/os/FreeRTOS/Source/portable/MemMang/heap_4.c **** 
 131:base/os/FreeRTOS/Source/portable/MemMang/heap_4.c **** 		/* Check the requested block size is not so large that the top bit is
 132:base/os/FreeRTOS/Source/portable/MemMang/heap_4.c **** 		set.  The top bit of the block size member of the BlockLink_t structure
 133:base/os/FreeRTOS/Source/portable/MemMang/heap_4.c **** 		is used to determine who owns the block - the application or the
 134:base/os/FreeRTOS/Source/portable/MemMang/heap_4.c **** 		kernel, so it must be free. */
 135:base/os/FreeRTOS/Source/portable/MemMang/heap_4.c **** 		if( ( xWantedSize & xBlockAllocatedBit ) == 0 )
 136:base/os/FreeRTOS/Source/portable/MemMang/heap_4.c **** 		{
 137:base/os/FreeRTOS/Source/portable/MemMang/heap_4.c **** 			/* The wanted size is increased so it can contain a BlockLink_t
 138:base/os/FreeRTOS/Source/portable/MemMang/heap_4.c **** 			structure in addition to the requested amount of bytes. */
 139:base/os/FreeRTOS/Source/portable/MemMang/heap_4.c **** 			if( xWantedSize > 0 )
 140:base/os/FreeRTOS/Source/portable/MemMang/heap_4.c **** 			{
 141:base/os/FreeRTOS/Source/portable/MemMang/heap_4.c **** 				xWantedSize += xHeapStructSize;
 142:base/os/FreeRTOS/Source/portable/MemMang/heap_4.c **** 
 143:base/os/FreeRTOS/Source/portable/MemMang/heap_4.c **** 				/* Ensure that blocks are always aligned to the required number
 144:base/os/FreeRTOS/Source/portable/MemMang/heap_4.c **** 				of bytes. */
 145:base/os/FreeRTOS/Source/portable/MemMang/heap_4.c **** 				if( ( xWantedSize & portBYTE_ALIGNMENT_MASK ) != 0x00 )
 146:base/os/FreeRTOS/Source/portable/MemMang/heap_4.c **** 				{
 147:base/os/FreeRTOS/Source/portable/MemMang/heap_4.c **** 					/* Byte alignment required. */
ARM GAS  /tmp/cctXC39Y.s 			page 4


 148:base/os/FreeRTOS/Source/portable/MemMang/heap_4.c **** 					xWantedSize += ( portBYTE_ALIGNMENT - ( xWantedSize & portBYTE_ALIGNMENT_MASK ) );
 149:base/os/FreeRTOS/Source/portable/MemMang/heap_4.c **** 					configASSERT( ( xWantedSize & portBYTE_ALIGNMENT_MASK ) == 0 );
 150:base/os/FreeRTOS/Source/portable/MemMang/heap_4.c **** 				}
 151:base/os/FreeRTOS/Source/portable/MemMang/heap_4.c **** 				else
 152:base/os/FreeRTOS/Source/portable/MemMang/heap_4.c **** 				{
 153:base/os/FreeRTOS/Source/portable/MemMang/heap_4.c **** 					mtCOVERAGE_TEST_MARKER();
 154:base/os/FreeRTOS/Source/portable/MemMang/heap_4.c **** 				}
 155:base/os/FreeRTOS/Source/portable/MemMang/heap_4.c **** 			}
 156:base/os/FreeRTOS/Source/portable/MemMang/heap_4.c **** 			else
 157:base/os/FreeRTOS/Source/portable/MemMang/heap_4.c **** 			{
 158:base/os/FreeRTOS/Source/portable/MemMang/heap_4.c **** 				mtCOVERAGE_TEST_MARKER();
 159:base/os/FreeRTOS/Source/portable/MemMang/heap_4.c **** 			}
 160:base/os/FreeRTOS/Source/portable/MemMang/heap_4.c **** 
 161:base/os/FreeRTOS/Source/portable/MemMang/heap_4.c **** 			if( ( xWantedSize > 0 ) && ( xWantedSize <= xFreeBytesRemaining ) )
 162:base/os/FreeRTOS/Source/portable/MemMang/heap_4.c **** 			{
 163:base/os/FreeRTOS/Source/portable/MemMang/heap_4.c **** 				/* Traverse the list from the start	(lowest address) block until
 164:base/os/FreeRTOS/Source/portable/MemMang/heap_4.c **** 				one	of adequate size is found. */
 165:base/os/FreeRTOS/Source/portable/MemMang/heap_4.c **** 				pxPreviousBlock = &xStart;
 166:base/os/FreeRTOS/Source/portable/MemMang/heap_4.c **** 				pxBlock = xStart.pxNextFreeBlock;
 167:base/os/FreeRTOS/Source/portable/MemMang/heap_4.c **** 				while( ( pxBlock->xBlockSize < xWantedSize ) && ( pxBlock->pxNextFreeBlock != NULL ) )
 168:base/os/FreeRTOS/Source/portable/MemMang/heap_4.c **** 				{
 169:base/os/FreeRTOS/Source/portable/MemMang/heap_4.c **** 					pxPreviousBlock = pxBlock;
 170:base/os/FreeRTOS/Source/portable/MemMang/heap_4.c **** 					pxBlock = pxBlock->pxNextFreeBlock;
 171:base/os/FreeRTOS/Source/portable/MemMang/heap_4.c **** 				}
 172:base/os/FreeRTOS/Source/portable/MemMang/heap_4.c **** 
 173:base/os/FreeRTOS/Source/portable/MemMang/heap_4.c **** 				/* If the end marker was reached then a block of adequate size
 174:base/os/FreeRTOS/Source/portable/MemMang/heap_4.c **** 				was	not found. */
 175:base/os/FreeRTOS/Source/portable/MemMang/heap_4.c **** 				if( pxBlock != pxEnd )
 176:base/os/FreeRTOS/Source/portable/MemMang/heap_4.c **** 				{
 177:base/os/FreeRTOS/Source/portable/MemMang/heap_4.c **** 					/* Return the memory space pointed to - jumping over the
 178:base/os/FreeRTOS/Source/portable/MemMang/heap_4.c **** 					BlockLink_t structure at its start. */
 179:base/os/FreeRTOS/Source/portable/MemMang/heap_4.c **** 					pvReturn = ( void * ) ( ( ( uint8_t * ) pxPreviousBlock->pxNextFreeBlock ) + xHeapStructSize )
 180:base/os/FreeRTOS/Source/portable/MemMang/heap_4.c **** 
 181:base/os/FreeRTOS/Source/portable/MemMang/heap_4.c **** 					/* This block is being returned for use so must be taken out
 182:base/os/FreeRTOS/Source/portable/MemMang/heap_4.c **** 					of the list of free blocks. */
 183:base/os/FreeRTOS/Source/portable/MemMang/heap_4.c **** 					pxPreviousBlock->pxNextFreeBlock = pxBlock->pxNextFreeBlock;
 184:base/os/FreeRTOS/Source/portable/MemMang/heap_4.c **** 
 185:base/os/FreeRTOS/Source/portable/MemMang/heap_4.c **** 					/* If the block is larger than required it can be split into
 186:base/os/FreeRTOS/Source/portable/MemMang/heap_4.c **** 					two. */
 187:base/os/FreeRTOS/Source/portable/MemMang/heap_4.c **** 					if( ( pxBlock->xBlockSize - xWantedSize ) > heapMINIMUM_BLOCK_SIZE )
 188:base/os/FreeRTOS/Source/portable/MemMang/heap_4.c **** 					{
 189:base/os/FreeRTOS/Source/portable/MemMang/heap_4.c **** 						/* This block is to be split into two.  Create a new
 190:base/os/FreeRTOS/Source/portable/MemMang/heap_4.c **** 						block following the number of bytes requested. The void
 191:base/os/FreeRTOS/Source/portable/MemMang/heap_4.c **** 						cast is used to prevent byte alignment warnings from the
 192:base/os/FreeRTOS/Source/portable/MemMang/heap_4.c **** 						compiler. */
 193:base/os/FreeRTOS/Source/portable/MemMang/heap_4.c **** 						pxNewBlockLink = ( void * ) ( ( ( uint8_t * ) pxBlock ) + xWantedSize );
 194:base/os/FreeRTOS/Source/portable/MemMang/heap_4.c **** 						configASSERT( ( ( ( size_t ) pxNewBlockLink ) & portBYTE_ALIGNMENT_MASK ) == 0 );
 195:base/os/FreeRTOS/Source/portable/MemMang/heap_4.c **** 
 196:base/os/FreeRTOS/Source/portable/MemMang/heap_4.c **** 						/* Calculate the sizes of two blocks split from the
 197:base/os/FreeRTOS/Source/portable/MemMang/heap_4.c **** 						single block. */
 198:base/os/FreeRTOS/Source/portable/MemMang/heap_4.c **** 						pxNewBlockLink->xBlockSize = pxBlock->xBlockSize - xWantedSize;
 199:base/os/FreeRTOS/Source/portable/MemMang/heap_4.c **** 						pxBlock->xBlockSize = xWantedSize;
 200:base/os/FreeRTOS/Source/portable/MemMang/heap_4.c **** 
 201:base/os/FreeRTOS/Source/portable/MemMang/heap_4.c **** 						/* Insert the new block into the list of free blocks. */
 202:base/os/FreeRTOS/Source/portable/MemMang/heap_4.c **** 						prvInsertBlockIntoFreeList( pxNewBlockLink );
 203:base/os/FreeRTOS/Source/portable/MemMang/heap_4.c **** 					}
 204:base/os/FreeRTOS/Source/portable/MemMang/heap_4.c **** 					else
ARM GAS  /tmp/cctXC39Y.s 			page 5


 205:base/os/FreeRTOS/Source/portable/MemMang/heap_4.c **** 					{
 206:base/os/FreeRTOS/Source/portable/MemMang/heap_4.c **** 						mtCOVERAGE_TEST_MARKER();
 207:base/os/FreeRTOS/Source/portable/MemMang/heap_4.c **** 					}
 208:base/os/FreeRTOS/Source/portable/MemMang/heap_4.c **** 
 209:base/os/FreeRTOS/Source/portable/MemMang/heap_4.c **** 					xFreeBytesRemaining -= pxBlock->xBlockSize;
 210:base/os/FreeRTOS/Source/portable/MemMang/heap_4.c **** 
 211:base/os/FreeRTOS/Source/portable/MemMang/heap_4.c **** 					if( xFreeBytesRemaining < xMinimumEverFreeBytesRemaining )
 212:base/os/FreeRTOS/Source/portable/MemMang/heap_4.c **** 					{
 213:base/os/FreeRTOS/Source/portable/MemMang/heap_4.c **** 						xMinimumEverFreeBytesRemaining = xFreeBytesRemaining;
 214:base/os/FreeRTOS/Source/portable/MemMang/heap_4.c **** 					}
 215:base/os/FreeRTOS/Source/portable/MemMang/heap_4.c **** 					else
 216:base/os/FreeRTOS/Source/portable/MemMang/heap_4.c **** 					{
 217:base/os/FreeRTOS/Source/portable/MemMang/heap_4.c **** 						mtCOVERAGE_TEST_MARKER();
 218:base/os/FreeRTOS/Source/portable/MemMang/heap_4.c **** 					}
 219:base/os/FreeRTOS/Source/portable/MemMang/heap_4.c **** 
 220:base/os/FreeRTOS/Source/portable/MemMang/heap_4.c **** 					/* The block is being returned - it is allocated and owned
 221:base/os/FreeRTOS/Source/portable/MemMang/heap_4.c **** 					by the application and has no "next" block. */
 222:base/os/FreeRTOS/Source/portable/MemMang/heap_4.c **** 					pxBlock->xBlockSize |= xBlockAllocatedBit;
 223:base/os/FreeRTOS/Source/portable/MemMang/heap_4.c **** 					pxBlock->pxNextFreeBlock = NULL;
 224:base/os/FreeRTOS/Source/portable/MemMang/heap_4.c **** 				}
 225:base/os/FreeRTOS/Source/portable/MemMang/heap_4.c **** 				else
 226:base/os/FreeRTOS/Source/portable/MemMang/heap_4.c **** 				{
 227:base/os/FreeRTOS/Source/portable/MemMang/heap_4.c **** 					mtCOVERAGE_TEST_MARKER();
 228:base/os/FreeRTOS/Source/portable/MemMang/heap_4.c **** 				}
 229:base/os/FreeRTOS/Source/portable/MemMang/heap_4.c **** 			}
 230:base/os/FreeRTOS/Source/portable/MemMang/heap_4.c **** 			else
 231:base/os/FreeRTOS/Source/portable/MemMang/heap_4.c **** 			{
 232:base/os/FreeRTOS/Source/portable/MemMang/heap_4.c **** 				mtCOVERAGE_TEST_MARKER();
 233:base/os/FreeRTOS/Source/portable/MemMang/heap_4.c **** 			}
 234:base/os/FreeRTOS/Source/portable/MemMang/heap_4.c **** 		}
 235:base/os/FreeRTOS/Source/portable/MemMang/heap_4.c **** 		else
 236:base/os/FreeRTOS/Source/portable/MemMang/heap_4.c **** 		{
 237:base/os/FreeRTOS/Source/portable/MemMang/heap_4.c **** 			mtCOVERAGE_TEST_MARKER();
 238:base/os/FreeRTOS/Source/portable/MemMang/heap_4.c **** 		}
 239:base/os/FreeRTOS/Source/portable/MemMang/heap_4.c **** 
 240:base/os/FreeRTOS/Source/portable/MemMang/heap_4.c **** 		traceMALLOC( pvReturn, xWantedSize );
 241:base/os/FreeRTOS/Source/portable/MemMang/heap_4.c **** 	}
 242:base/os/FreeRTOS/Source/portable/MemMang/heap_4.c **** 	( void ) xTaskResumeAll();
 243:base/os/FreeRTOS/Source/portable/MemMang/heap_4.c **** 
 244:base/os/FreeRTOS/Source/portable/MemMang/heap_4.c **** 	#if( configUSE_MALLOC_FAILED_HOOK == 1 )
 245:base/os/FreeRTOS/Source/portable/MemMang/heap_4.c **** 	{
 246:base/os/FreeRTOS/Source/portable/MemMang/heap_4.c **** 		if( pvReturn == NULL )
 247:base/os/FreeRTOS/Source/portable/MemMang/heap_4.c **** 		{
 248:base/os/FreeRTOS/Source/portable/MemMang/heap_4.c **** 			extern void vApplicationMallocFailedHook( void );
 249:base/os/FreeRTOS/Source/portable/MemMang/heap_4.c **** 			vApplicationMallocFailedHook();
 250:base/os/FreeRTOS/Source/portable/MemMang/heap_4.c **** 		}
 251:base/os/FreeRTOS/Source/portable/MemMang/heap_4.c **** 		else
 252:base/os/FreeRTOS/Source/portable/MemMang/heap_4.c **** 		{
 253:base/os/FreeRTOS/Source/portable/MemMang/heap_4.c **** 			mtCOVERAGE_TEST_MARKER();
 254:base/os/FreeRTOS/Source/portable/MemMang/heap_4.c **** 		}
 255:base/os/FreeRTOS/Source/portable/MemMang/heap_4.c **** 	}
 256:base/os/FreeRTOS/Source/portable/MemMang/heap_4.c **** 	#endif
 257:base/os/FreeRTOS/Source/portable/MemMang/heap_4.c **** 
 258:base/os/FreeRTOS/Source/portable/MemMang/heap_4.c **** 	configASSERT( ( ( ( size_t ) pvReturn ) & ( size_t ) portBYTE_ALIGNMENT_MASK ) == 0 );
 259:base/os/FreeRTOS/Source/portable/MemMang/heap_4.c **** 	return pvReturn;
 260:base/os/FreeRTOS/Source/portable/MemMang/heap_4.c **** }
 261:base/os/FreeRTOS/Source/portable/MemMang/heap_4.c **** /*-----------------------------------------------------------*/
ARM GAS  /tmp/cctXC39Y.s 			page 6


 262:base/os/FreeRTOS/Source/portable/MemMang/heap_4.c **** 
 263:base/os/FreeRTOS/Source/portable/MemMang/heap_4.c **** void vPortFree( void *pv )
 264:base/os/FreeRTOS/Source/portable/MemMang/heap_4.c **** {
 265:base/os/FreeRTOS/Source/portable/MemMang/heap_4.c **** uint8_t *puc = ( uint8_t * ) pv;
 266:base/os/FreeRTOS/Source/portable/MemMang/heap_4.c **** BlockLink_t *pxLink;
 267:base/os/FreeRTOS/Source/portable/MemMang/heap_4.c **** 
 268:base/os/FreeRTOS/Source/portable/MemMang/heap_4.c **** 	if( pv != NULL )
 269:base/os/FreeRTOS/Source/portable/MemMang/heap_4.c **** 	{
 270:base/os/FreeRTOS/Source/portable/MemMang/heap_4.c **** 		/* The memory being freed will have an BlockLink_t structure immediately
 271:base/os/FreeRTOS/Source/portable/MemMang/heap_4.c **** 		before it. */
 272:base/os/FreeRTOS/Source/portable/MemMang/heap_4.c **** 		puc -= xHeapStructSize;
 273:base/os/FreeRTOS/Source/portable/MemMang/heap_4.c **** 
 274:base/os/FreeRTOS/Source/portable/MemMang/heap_4.c **** 		/* This casting is to keep the compiler from issuing warnings. */
 275:base/os/FreeRTOS/Source/portable/MemMang/heap_4.c **** 		pxLink = ( void * ) puc;
 276:base/os/FreeRTOS/Source/portable/MemMang/heap_4.c **** 
 277:base/os/FreeRTOS/Source/portable/MemMang/heap_4.c **** 		/* Check the block is actually allocated. */
 278:base/os/FreeRTOS/Source/portable/MemMang/heap_4.c **** 		configASSERT( ( pxLink->xBlockSize & xBlockAllocatedBit ) != 0 );
 279:base/os/FreeRTOS/Source/portable/MemMang/heap_4.c **** 		configASSERT( pxLink->pxNextFreeBlock == NULL );
 280:base/os/FreeRTOS/Source/portable/MemMang/heap_4.c **** 
 281:base/os/FreeRTOS/Source/portable/MemMang/heap_4.c **** 		if( ( pxLink->xBlockSize & xBlockAllocatedBit ) != 0 )
 282:base/os/FreeRTOS/Source/portable/MemMang/heap_4.c **** 		{
 283:base/os/FreeRTOS/Source/portable/MemMang/heap_4.c **** 			if( pxLink->pxNextFreeBlock == NULL )
 284:base/os/FreeRTOS/Source/portable/MemMang/heap_4.c **** 			{
 285:base/os/FreeRTOS/Source/portable/MemMang/heap_4.c **** 				/* The block is being returned to the heap - it is no longer
 286:base/os/FreeRTOS/Source/portable/MemMang/heap_4.c **** 				allocated. */
 287:base/os/FreeRTOS/Source/portable/MemMang/heap_4.c **** 				pxLink->xBlockSize &= ~xBlockAllocatedBit;
 288:base/os/FreeRTOS/Source/portable/MemMang/heap_4.c **** 
 289:base/os/FreeRTOS/Source/portable/MemMang/heap_4.c **** 				vTaskSuspendAll();
 290:base/os/FreeRTOS/Source/portable/MemMang/heap_4.c **** 				{
 291:base/os/FreeRTOS/Source/portable/MemMang/heap_4.c **** 					/* Add this block to the list of free blocks. */
 292:base/os/FreeRTOS/Source/portable/MemMang/heap_4.c **** 					xFreeBytesRemaining += pxLink->xBlockSize;
 293:base/os/FreeRTOS/Source/portable/MemMang/heap_4.c **** 					traceFREE( pv, pxLink->xBlockSize );
 294:base/os/FreeRTOS/Source/portable/MemMang/heap_4.c **** 					prvInsertBlockIntoFreeList( ( ( BlockLink_t * ) pxLink ) );
 295:base/os/FreeRTOS/Source/portable/MemMang/heap_4.c **** 				}
 296:base/os/FreeRTOS/Source/portable/MemMang/heap_4.c **** 				( void ) xTaskResumeAll();
 297:base/os/FreeRTOS/Source/portable/MemMang/heap_4.c **** 			}
 298:base/os/FreeRTOS/Source/portable/MemMang/heap_4.c **** 			else
 299:base/os/FreeRTOS/Source/portable/MemMang/heap_4.c **** 			{
 300:base/os/FreeRTOS/Source/portable/MemMang/heap_4.c **** 				mtCOVERAGE_TEST_MARKER();
 301:base/os/FreeRTOS/Source/portable/MemMang/heap_4.c **** 			}
 302:base/os/FreeRTOS/Source/portable/MemMang/heap_4.c **** 		}
 303:base/os/FreeRTOS/Source/portable/MemMang/heap_4.c **** 		else
 304:base/os/FreeRTOS/Source/portable/MemMang/heap_4.c **** 		{
 305:base/os/FreeRTOS/Source/portable/MemMang/heap_4.c **** 			mtCOVERAGE_TEST_MARKER();
 306:base/os/FreeRTOS/Source/portable/MemMang/heap_4.c **** 		}
 307:base/os/FreeRTOS/Source/portable/MemMang/heap_4.c **** 	}
 308:base/os/FreeRTOS/Source/portable/MemMang/heap_4.c **** }
 309:base/os/FreeRTOS/Source/portable/MemMang/heap_4.c **** /*-----------------------------------------------------------*/
 310:base/os/FreeRTOS/Source/portable/MemMang/heap_4.c **** 
 311:base/os/FreeRTOS/Source/portable/MemMang/heap_4.c **** size_t xPortGetFreeHeapSize( void )
 312:base/os/FreeRTOS/Source/portable/MemMang/heap_4.c **** {
 313:base/os/FreeRTOS/Source/portable/MemMang/heap_4.c **** 	return xFreeBytesRemaining;
 314:base/os/FreeRTOS/Source/portable/MemMang/heap_4.c **** }
 315:base/os/FreeRTOS/Source/portable/MemMang/heap_4.c **** /*-----------------------------------------------------------*/
 316:base/os/FreeRTOS/Source/portable/MemMang/heap_4.c **** 
 317:base/os/FreeRTOS/Source/portable/MemMang/heap_4.c **** size_t xPortGetMinimumEverFreeHeapSize( void )
 318:base/os/FreeRTOS/Source/portable/MemMang/heap_4.c **** {
ARM GAS  /tmp/cctXC39Y.s 			page 7


 319:base/os/FreeRTOS/Source/portable/MemMang/heap_4.c **** 	return xMinimumEverFreeBytesRemaining;
 320:base/os/FreeRTOS/Source/portable/MemMang/heap_4.c **** }
 321:base/os/FreeRTOS/Source/portable/MemMang/heap_4.c **** /*-----------------------------------------------------------*/
 322:base/os/FreeRTOS/Source/portable/MemMang/heap_4.c **** 
 323:base/os/FreeRTOS/Source/portable/MemMang/heap_4.c **** void vPortInitialiseBlocks( void )
 324:base/os/FreeRTOS/Source/portable/MemMang/heap_4.c **** {
 325:base/os/FreeRTOS/Source/portable/MemMang/heap_4.c **** 	/* This just exists to keep the linker quiet. */
 326:base/os/FreeRTOS/Source/portable/MemMang/heap_4.c **** }
 327:base/os/FreeRTOS/Source/portable/MemMang/heap_4.c **** /*-----------------------------------------------------------*/
 328:base/os/FreeRTOS/Source/portable/MemMang/heap_4.c **** 
 329:base/os/FreeRTOS/Source/portable/MemMang/heap_4.c **** static void prvHeapInit( void )
 330:base/os/FreeRTOS/Source/portable/MemMang/heap_4.c **** {
  26              		.loc 1 330 1 view -0
  27              		.cfi_startproc
  28              		@ args = 0, pretend = 0, frame = 0
  29              		@ frame_needed = 0, uses_anonymous_args = 0
  30              		@ link register save eliminated.
 331:base/os/FreeRTOS/Source/portable/MemMang/heap_4.c **** BlockLink_t *pxFirstFreeBlock;
  31              		.loc 1 331 1 view .LVU1
 332:base/os/FreeRTOS/Source/portable/MemMang/heap_4.c **** uint8_t *pucAlignedHeap;
  32              		.loc 1 332 1 view .LVU2
 333:base/os/FreeRTOS/Source/portable/MemMang/heap_4.c **** size_t uxAddress;
  33              		.loc 1 333 1 view .LVU3
 334:base/os/FreeRTOS/Source/portable/MemMang/heap_4.c **** size_t xTotalHeapSize = configTOTAL_HEAP_SIZE;
  34              		.loc 1 334 1 view .LVU4
  35              	.LVL0:
 335:base/os/FreeRTOS/Source/portable/MemMang/heap_4.c **** 
 336:base/os/FreeRTOS/Source/portable/MemMang/heap_4.c **** 	/* Ensure the heap starts on a correctly aligned boundary. */
 337:base/os/FreeRTOS/Source/portable/MemMang/heap_4.c **** 	uxAddress = ( size_t ) ucHeap;
  36              		.loc 1 337 2 view .LVU5
  37              		.loc 1 337 12 is_stmt 0 view .LVU6
  38 0000 124A     		ldr	r2, .L4
  39              	.LVL1:
 338:base/os/FreeRTOS/Source/portable/MemMang/heap_4.c **** 
 339:base/os/FreeRTOS/Source/portable/MemMang/heap_4.c **** 	if( ( uxAddress & portBYTE_ALIGNMENT_MASK ) != 0 )
  40              		.loc 1 339 2 is_stmt 1 view .LVU7
  41              		.loc 1 339 4 is_stmt 0 view .LVU8
  42 0002 12F0070F 		tst	r2, #7
  43 0006 1ED0     		beq	.L3
 340:base/os/FreeRTOS/Source/portable/MemMang/heap_4.c **** 	{
 341:base/os/FreeRTOS/Source/portable/MemMang/heap_4.c **** 		uxAddress += ( portBYTE_ALIGNMENT - 1 );
  44              		.loc 1 341 3 is_stmt 1 view .LVU9
  45              		.loc 1 341 13 is_stmt 0 view .LVU10
  46 0008 D11D     		adds	r1, r2, #7
  47              	.LVL2:
 342:base/os/FreeRTOS/Source/portable/MemMang/heap_4.c **** 		uxAddress &= ~( ( size_t ) portBYTE_ALIGNMENT_MASK );
  48              		.loc 1 342 3 is_stmt 1 view .LVU11
  49              		.loc 1 342 13 is_stmt 0 view .LVU12
  50 000a 21F00701 		bic	r1, r1, #7
  51              	.LVL3:
 343:base/os/FreeRTOS/Source/portable/MemMang/heap_4.c **** 		xTotalHeapSize -= uxAddress - ( size_t ) ucHeap;
  52              		.loc 1 343 3 is_stmt 1 view .LVU13
  53              		.loc 1 343 18 is_stmt 0 view .LVU14
  54 000e C1F54063 		rsb	r3, r1, #3072
  55 0012 1344     		add	r3, r3, r2
  56              	.LVL4:
 342:base/os/FreeRTOS/Source/portable/MemMang/heap_4.c **** 		uxAddress &= ~( ( size_t ) portBYTE_ALIGNMENT_MASK );
ARM GAS  /tmp/cctXC39Y.s 			page 8


  57              		.loc 1 342 13 view .LVU15
  58 0014 0A46     		mov	r2, r1
  59              	.LVL5:
  60              	.L2:
 344:base/os/FreeRTOS/Source/portable/MemMang/heap_4.c **** 	}
 345:base/os/FreeRTOS/Source/portable/MemMang/heap_4.c **** 
 346:base/os/FreeRTOS/Source/portable/MemMang/heap_4.c **** 	pucAlignedHeap = ( uint8_t * ) uxAddress;
  61              		.loc 1 346 2 is_stmt 1 view .LVU16
 347:base/os/FreeRTOS/Source/portable/MemMang/heap_4.c **** 
 348:base/os/FreeRTOS/Source/portable/MemMang/heap_4.c **** 	/* xStart is used to hold a pointer to the first item in the list of free
 349:base/os/FreeRTOS/Source/portable/MemMang/heap_4.c **** 	blocks.  The void cast is used to prevent compiler warnings. */
 350:base/os/FreeRTOS/Source/portable/MemMang/heap_4.c **** 	xStart.pxNextFreeBlock = ( void * ) pucAlignedHeap;
  62              		.loc 1 350 2 view .LVU17
  63              		.loc 1 350 25 is_stmt 0 view .LVU18
  64 0016 0E48     		ldr	r0, .L4+4
  65 0018 0260     		str	r2, [r0]
 351:base/os/FreeRTOS/Source/portable/MemMang/heap_4.c **** 	xStart.xBlockSize = ( size_t ) 0;
  66              		.loc 1 351 2 is_stmt 1 view .LVU19
  67              		.loc 1 351 20 is_stmt 0 view .LVU20
  68 001a 0021     		movs	r1, #0
  69 001c 4160     		str	r1, [r0, #4]
 352:base/os/FreeRTOS/Source/portable/MemMang/heap_4.c **** 
 353:base/os/FreeRTOS/Source/portable/MemMang/heap_4.c **** 	/* pxEnd is used to mark the end of the list of free blocks and is inserted
 354:base/os/FreeRTOS/Source/portable/MemMang/heap_4.c **** 	at the end of the heap space. */
 355:base/os/FreeRTOS/Source/portable/MemMang/heap_4.c **** 	uxAddress = ( ( size_t ) pucAlignedHeap ) + xTotalHeapSize;
  70              		.loc 1 355 2 is_stmt 1 view .LVU21
  71              		.loc 1 355 12 is_stmt 0 view .LVU22
  72 001e 1344     		add	r3, r3, r2
  73              	.LVL6:
 356:base/os/FreeRTOS/Source/portable/MemMang/heap_4.c **** 	uxAddress -= xHeapStructSize;
  74              		.loc 1 356 2 is_stmt 1 view .LVU23
  75              		.loc 1 356 12 is_stmt 0 view .LVU24
  76 0020 083B     		subs	r3, r3, #8
  77              	.LVL7:
 357:base/os/FreeRTOS/Source/portable/MemMang/heap_4.c **** 	uxAddress &= ~( ( size_t ) portBYTE_ALIGNMENT_MASK );
  78              		.loc 1 357 2 is_stmt 1 view .LVU25
  79              		.loc 1 357 12 is_stmt 0 view .LVU26
  80 0022 23F00703 		bic	r3, r3, #7
  81              	.LVL8:
 358:base/os/FreeRTOS/Source/portable/MemMang/heap_4.c **** 	pxEnd = ( void * ) uxAddress;
  82              		.loc 1 358 2 is_stmt 1 view .LVU27
  83              		.loc 1 358 8 is_stmt 0 view .LVU28
  84 0026 0B48     		ldr	r0, .L4+8
  85 0028 0360     		str	r3, [r0]
 359:base/os/FreeRTOS/Source/portable/MemMang/heap_4.c **** 	pxEnd->xBlockSize = 0;
  86              		.loc 1 359 2 is_stmt 1 view .LVU29
  87              		.loc 1 359 20 is_stmt 0 view .LVU30
  88 002a 5960     		str	r1, [r3, #4]
 360:base/os/FreeRTOS/Source/portable/MemMang/heap_4.c **** 	pxEnd->pxNextFreeBlock = NULL;
  89              		.loc 1 360 2 is_stmt 1 view .LVU31
  90              		.loc 1 360 25 is_stmt 0 view .LVU32
  91 002c 1960     		str	r1, [r3]
 361:base/os/FreeRTOS/Source/portable/MemMang/heap_4.c **** 
 362:base/os/FreeRTOS/Source/portable/MemMang/heap_4.c **** 	/* To start with there is a single free block that is sized to take up the
 363:base/os/FreeRTOS/Source/portable/MemMang/heap_4.c **** 	entire heap space, minus the space taken by pxEnd. */
 364:base/os/FreeRTOS/Source/portable/MemMang/heap_4.c **** 	pxFirstFreeBlock = ( void * ) pucAlignedHeap;
  92              		.loc 1 364 2 is_stmt 1 view .LVU33
ARM GAS  /tmp/cctXC39Y.s 			page 9


  93              	.LVL9:
 365:base/os/FreeRTOS/Source/portable/MemMang/heap_4.c **** 	pxFirstFreeBlock->xBlockSize = uxAddress - ( size_t ) pxFirstFreeBlock;
  94              		.loc 1 365 2 view .LVU34
  95              		.loc 1 365 43 is_stmt 0 view .LVU35
  96 002e 991A     		subs	r1, r3, r2
  97              		.loc 1 365 31 view .LVU36
  98 0030 5160     		str	r1, [r2, #4]
 366:base/os/FreeRTOS/Source/portable/MemMang/heap_4.c **** 	pxFirstFreeBlock->pxNextFreeBlock = pxEnd;
  99              		.loc 1 366 2 is_stmt 1 view .LVU37
 100              		.loc 1 366 36 is_stmt 0 view .LVU38
 101 0032 1360     		str	r3, [r2]
 367:base/os/FreeRTOS/Source/portable/MemMang/heap_4.c **** 
 368:base/os/FreeRTOS/Source/portable/MemMang/heap_4.c **** 	/* Only one block exists - and it covers the entire usable heap space. */
 369:base/os/FreeRTOS/Source/portable/MemMang/heap_4.c **** 	xMinimumEverFreeBytesRemaining = pxFirstFreeBlock->xBlockSize;
 102              		.loc 1 369 2 is_stmt 1 view .LVU39
 103              		.loc 1 369 33 is_stmt 0 view .LVU40
 104 0034 084B     		ldr	r3, .L4+12
 105              	.LVL10:
 106              		.loc 1 369 33 view .LVU41
 107 0036 1960     		str	r1, [r3]
 370:base/os/FreeRTOS/Source/portable/MemMang/heap_4.c **** 	xFreeBytesRemaining = pxFirstFreeBlock->xBlockSize;
 108              		.loc 1 370 2 is_stmt 1 view .LVU42
 109              		.loc 1 370 22 is_stmt 0 view .LVU43
 110 0038 084B     		ldr	r3, .L4+16
 111 003a 1960     		str	r1, [r3]
 371:base/os/FreeRTOS/Source/portable/MemMang/heap_4.c **** 
 372:base/os/FreeRTOS/Source/portable/MemMang/heap_4.c **** 	/* Work out the position of the top bit in a size_t variable. */
 373:base/os/FreeRTOS/Source/portable/MemMang/heap_4.c **** 	xBlockAllocatedBit = ( ( size_t ) 1 ) << ( ( sizeof( size_t ) * heapBITS_PER_BYTE ) - 1 );
 112              		.loc 1 373 2 is_stmt 1 view .LVU44
 113              		.loc 1 373 21 is_stmt 0 view .LVU45
 114 003c 084B     		ldr	r3, .L4+20
 115 003e 4FF00042 		mov	r2, #-2147483648
 116              	.LVL11:
 117              		.loc 1 373 21 view .LVU46
 118 0042 1A60     		str	r2, [r3]
 374:base/os/FreeRTOS/Source/portable/MemMang/heap_4.c **** }
 119              		.loc 1 374 1 view .LVU47
 120 0044 7047     		bx	lr
 121              	.LVL12:
 122              	.L3:
 334:base/os/FreeRTOS/Source/portable/MemMang/heap_4.c **** 
 123              		.loc 1 334 8 view .LVU48
 124 0046 4FF44063 		mov	r3, #3072
 125 004a E4E7     		b	.L2
 126              	.L5:
 127              		.align	2
 128              	.L4:
 129 004c 00000000 		.word	.LANCHOR0
 130 0050 00000000 		.word	.LANCHOR1
 131 0054 00000000 		.word	.LANCHOR2
 132 0058 00000000 		.word	.LANCHOR3
 133 005c 00000000 		.word	.LANCHOR4
 134 0060 00000000 		.word	.LANCHOR5
 135              		.cfi_endproc
 136              	.LFE9:
 138              		.section	.text.prvInsertBlockIntoFreeList,"ax",%progbits
 139              		.align	1
ARM GAS  /tmp/cctXC39Y.s 			page 10


 140              		.syntax unified
 141              		.thumb
 142              		.thumb_func
 143              		.fpu softvfp
 145              	prvInsertBlockIntoFreeList:
 146              	.LVL13:
 147              	.LFB10:
 375:base/os/FreeRTOS/Source/portable/MemMang/heap_4.c **** /*-----------------------------------------------------------*/
 376:base/os/FreeRTOS/Source/portable/MemMang/heap_4.c **** 
 377:base/os/FreeRTOS/Source/portable/MemMang/heap_4.c **** static void prvInsertBlockIntoFreeList( BlockLink_t *pxBlockToInsert )
 378:base/os/FreeRTOS/Source/portable/MemMang/heap_4.c **** {
 148              		.loc 1 378 1 is_stmt 1 view -0
 149              		.cfi_startproc
 150              		@ args = 0, pretend = 0, frame = 0
 151              		@ frame_needed = 0, uses_anonymous_args = 0
 152              		@ link register save eliminated.
 379:base/os/FreeRTOS/Source/portable/MemMang/heap_4.c **** BlockLink_t *pxIterator;
 153              		.loc 1 379 1 view .LVU50
 380:base/os/FreeRTOS/Source/portable/MemMang/heap_4.c **** uint8_t *puc;
 154              		.loc 1 380 1 view .LVU51
 381:base/os/FreeRTOS/Source/portable/MemMang/heap_4.c **** 
 382:base/os/FreeRTOS/Source/portable/MemMang/heap_4.c **** 	/* Iterate through the list until a block is found that has a higher address
 383:base/os/FreeRTOS/Source/portable/MemMang/heap_4.c **** 	than the block being inserted. */
 384:base/os/FreeRTOS/Source/portable/MemMang/heap_4.c **** 	for( pxIterator = &xStart; pxIterator->pxNextFreeBlock < pxBlockToInsert; pxIterator = pxIterator-
 155              		.loc 1 384 2 view .LVU52
 156              		.loc 1 384 18 is_stmt 0 view .LVU53
 157 0000 154B     		ldr	r3, .L21
 158              	.LVL14:
 159              	.L7:
 160              		.loc 1 384 57 is_stmt 1 discriminator 1 view .LVU54
 161 0002 1A46     		mov	r2, r3
 162              		.loc 1 384 39 is_stmt 0 discriminator 1 view .LVU55
 163 0004 1B68     		ldr	r3, [r3]
 164              	.LVL15:
 165              		.loc 1 384 57 discriminator 1 view .LVU56
 166 0006 8342     		cmp	r3, r0
 167 0008 FBD3     		bcc	.L7
 385:base/os/FreeRTOS/Source/portable/MemMang/heap_4.c **** 	{
 386:base/os/FreeRTOS/Source/portable/MemMang/heap_4.c **** 		/* Nothing to do here, just iterate to the right position. */
 387:base/os/FreeRTOS/Source/portable/MemMang/heap_4.c **** 	}
 388:base/os/FreeRTOS/Source/portable/MemMang/heap_4.c **** 
 389:base/os/FreeRTOS/Source/portable/MemMang/heap_4.c **** 	/* Do the block being inserted, and the block it is being inserted after
 390:base/os/FreeRTOS/Source/portable/MemMang/heap_4.c **** 	make a contiguous block of memory? */
 391:base/os/FreeRTOS/Source/portable/MemMang/heap_4.c **** 	puc = ( uint8_t * ) pxIterator;
 168              		.loc 1 391 2 is_stmt 1 view .LVU57
 169              	.LVL16:
 392:base/os/FreeRTOS/Source/portable/MemMang/heap_4.c **** 	if( ( puc + pxIterator->xBlockSize ) == ( uint8_t * ) pxBlockToInsert )
 170              		.loc 1 392 2 view .LVU58
 171              		.loc 1 392 24 is_stmt 0 view .LVU59
 172 000a 5168     		ldr	r1, [r2, #4]
 173              		.loc 1 392 12 view .LVU60
 174 000c 02EB010C 		add	ip, r2, r1
 175              		.loc 1 392 4 view .LVU61
 176 0010 8445     		cmp	ip, r0
 177 0012 09D0     		beq	.L19
 178              	.L8:
 393:base/os/FreeRTOS/Source/portable/MemMang/heap_4.c **** 	{
ARM GAS  /tmp/cctXC39Y.s 			page 11


 394:base/os/FreeRTOS/Source/portable/MemMang/heap_4.c **** 		pxIterator->xBlockSize += pxBlockToInsert->xBlockSize;
 395:base/os/FreeRTOS/Source/portable/MemMang/heap_4.c **** 		pxBlockToInsert = pxIterator;
 396:base/os/FreeRTOS/Source/portable/MemMang/heap_4.c **** 	}
 397:base/os/FreeRTOS/Source/portable/MemMang/heap_4.c **** 	else
 398:base/os/FreeRTOS/Source/portable/MemMang/heap_4.c **** 	{
 399:base/os/FreeRTOS/Source/portable/MemMang/heap_4.c **** 		mtCOVERAGE_TEST_MARKER();
 179              		.loc 1 399 27 is_stmt 1 view .LVU62
 400:base/os/FreeRTOS/Source/portable/MemMang/heap_4.c **** 	}
 401:base/os/FreeRTOS/Source/portable/MemMang/heap_4.c **** 
 402:base/os/FreeRTOS/Source/portable/MemMang/heap_4.c **** 	/* Do the block being inserted, and the block it is being inserted before
 403:base/os/FreeRTOS/Source/portable/MemMang/heap_4.c **** 	make a contiguous block of memory? */
 404:base/os/FreeRTOS/Source/portable/MemMang/heap_4.c **** 	puc = ( uint8_t * ) pxBlockToInsert;
 180              		.loc 1 404 2 view .LVU63
 181              	.LVL17:
 405:base/os/FreeRTOS/Source/portable/MemMang/heap_4.c **** 	if( ( puc + pxBlockToInsert->xBlockSize ) == ( uint8_t * ) pxIterator->pxNextFreeBlock )
 182              		.loc 1 405 2 view .LVU64
 183              		.loc 1 405 29 is_stmt 0 view .LVU65
 184 0014 4168     		ldr	r1, [r0, #4]
 185              		.loc 1 405 12 view .LVU66
 186 0016 00EB010C 		add	ip, r0, r1
 187              		.loc 1 405 4 view .LVU67
 188 001a 6345     		cmp	r3, ip
 189 001c 09D0     		beq	.L20
 406:base/os/FreeRTOS/Source/portable/MemMang/heap_4.c **** 	{
 407:base/os/FreeRTOS/Source/portable/MemMang/heap_4.c **** 		if( pxIterator->pxNextFreeBlock != pxEnd )
 408:base/os/FreeRTOS/Source/portable/MemMang/heap_4.c **** 		{
 409:base/os/FreeRTOS/Source/portable/MemMang/heap_4.c **** 			/* Form one big block from the two blocks. */
 410:base/os/FreeRTOS/Source/portable/MemMang/heap_4.c **** 			pxBlockToInsert->xBlockSize += pxIterator->pxNextFreeBlock->xBlockSize;
 411:base/os/FreeRTOS/Source/portable/MemMang/heap_4.c **** 			pxBlockToInsert->pxNextFreeBlock = pxIterator->pxNextFreeBlock->pxNextFreeBlock;
 412:base/os/FreeRTOS/Source/portable/MemMang/heap_4.c **** 		}
 413:base/os/FreeRTOS/Source/portable/MemMang/heap_4.c **** 		else
 414:base/os/FreeRTOS/Source/portable/MemMang/heap_4.c **** 		{
 415:base/os/FreeRTOS/Source/portable/MemMang/heap_4.c **** 			pxBlockToInsert->pxNextFreeBlock = pxEnd;
 416:base/os/FreeRTOS/Source/portable/MemMang/heap_4.c **** 		}
 417:base/os/FreeRTOS/Source/portable/MemMang/heap_4.c **** 	}
 418:base/os/FreeRTOS/Source/portable/MemMang/heap_4.c **** 	else
 419:base/os/FreeRTOS/Source/portable/MemMang/heap_4.c **** 	{
 420:base/os/FreeRTOS/Source/portable/MemMang/heap_4.c **** 		pxBlockToInsert->pxNextFreeBlock = pxIterator->pxNextFreeBlock;
 190              		.loc 1 420 3 is_stmt 1 view .LVU68
 191              		.loc 1 420 36 is_stmt 0 view .LVU69
 192 001e 0360     		str	r3, [r0]
 421:base/os/FreeRTOS/Source/portable/MemMang/heap_4.c **** 	}
 422:base/os/FreeRTOS/Source/portable/MemMang/heap_4.c **** 
 423:base/os/FreeRTOS/Source/portable/MemMang/heap_4.c **** 	/* If the block being inserted plugged a gab, so was merged with the block
 424:base/os/FreeRTOS/Source/portable/MemMang/heap_4.c **** 	before and the block after, then it's pxNextFreeBlock pointer will have
 425:base/os/FreeRTOS/Source/portable/MemMang/heap_4.c **** 	already been set, and should not be set here as that would make it point
 426:base/os/FreeRTOS/Source/portable/MemMang/heap_4.c **** 	to itself. */
 427:base/os/FreeRTOS/Source/portable/MemMang/heap_4.c **** 	if( pxIterator != pxBlockToInsert )
 193              		.loc 1 427 2 is_stmt 1 view .LVU70
 194              		.loc 1 427 4 is_stmt 0 view .LVU71
 195 0020 9042     		cmp	r0, r2
 196 0022 18D0     		beq	.L16
 428:base/os/FreeRTOS/Source/portable/MemMang/heap_4.c **** 	{
 429:base/os/FreeRTOS/Source/portable/MemMang/heap_4.c **** 		pxIterator->pxNextFreeBlock = pxBlockToInsert;
 197              		.loc 1 429 3 is_stmt 1 view .LVU72
 198              		.loc 1 429 31 is_stmt 0 view .LVU73
 199 0024 1060     		str	r0, [r2]
ARM GAS  /tmp/cctXC39Y.s 			page 12


 430:base/os/FreeRTOS/Source/portable/MemMang/heap_4.c **** 	}
 431:base/os/FreeRTOS/Source/portable/MemMang/heap_4.c **** 	else
 432:base/os/FreeRTOS/Source/portable/MemMang/heap_4.c **** 	{
 433:base/os/FreeRTOS/Source/portable/MemMang/heap_4.c **** 		mtCOVERAGE_TEST_MARKER();
 200              		.loc 1 433 27 is_stmt 1 view .LVU74
 201 0026 7047     		bx	lr
 202              	.LVL18:
 203              	.L19:
 394:base/os/FreeRTOS/Source/portable/MemMang/heap_4.c **** 		pxBlockToInsert = pxIterator;
 204              		.loc 1 394 3 view .LVU75
 394:base/os/FreeRTOS/Source/portable/MemMang/heap_4.c **** 		pxBlockToInsert = pxIterator;
 205              		.loc 1 394 44 is_stmt 0 view .LVU76
 206 0028 4068     		ldr	r0, [r0, #4]
 207              	.LVL19:
 394:base/os/FreeRTOS/Source/portable/MemMang/heap_4.c **** 		pxBlockToInsert = pxIterator;
 208              		.loc 1 394 26 view .LVU77
 209 002a 0144     		add	r1, r1, r0
 210 002c 5160     		str	r1, [r2, #4]
 395:base/os/FreeRTOS/Source/portable/MemMang/heap_4.c **** 	}
 211              		.loc 1 395 3 is_stmt 1 view .LVU78
 212              	.LVL20:
 395:base/os/FreeRTOS/Source/portable/MemMang/heap_4.c **** 	}
 213              		.loc 1 395 19 is_stmt 0 view .LVU79
 214 002e 1046     		mov	r0, r2
 215 0030 F0E7     		b	.L8
 216              	.LVL21:
 217              	.L20:
 378:base/os/FreeRTOS/Source/portable/MemMang/heap_4.c **** BlockLink_t *pxIterator;
 218              		.loc 1 378 1 view .LVU80
 219 0032 10B4     		push	{r4}
 220              	.LCFI0:
 221              		.cfi_def_cfa_offset 4
 222              		.cfi_offset 4, -4
 407:base/os/FreeRTOS/Source/portable/MemMang/heap_4.c **** 		{
 223              		.loc 1 407 3 is_stmt 1 view .LVU81
 407:base/os/FreeRTOS/Source/portable/MemMang/heap_4.c **** 		{
 224              		.loc 1 407 35 is_stmt 0 view .LVU82
 225 0034 094C     		ldr	r4, .L21+4
 226 0036 2468     		ldr	r4, [r4]
 407:base/os/FreeRTOS/Source/portable/MemMang/heap_4.c **** 		{
 227              		.loc 1 407 5 view .LVU83
 228 0038 A342     		cmp	r3, r4
 229 003a 0AD0     		beq	.L10
 410:base/os/FreeRTOS/Source/portable/MemMang/heap_4.c **** 			pxBlockToInsert->pxNextFreeBlock = pxIterator->pxNextFreeBlock->pxNextFreeBlock;
 230              		.loc 1 410 4 is_stmt 1 view .LVU84
 410:base/os/FreeRTOS/Source/portable/MemMang/heap_4.c **** 			pxBlockToInsert->pxNextFreeBlock = pxIterator->pxNextFreeBlock->pxNextFreeBlock;
 231              		.loc 1 410 62 is_stmt 0 view .LVU85
 232 003c 5B68     		ldr	r3, [r3, #4]
 410:base/os/FreeRTOS/Source/portable/MemMang/heap_4.c **** 			pxBlockToInsert->pxNextFreeBlock = pxIterator->pxNextFreeBlock->pxNextFreeBlock;
 233              		.loc 1 410 32 view .LVU86
 234 003e 1944     		add	r1, r1, r3
 235 0040 4160     		str	r1, [r0, #4]
 411:base/os/FreeRTOS/Source/portable/MemMang/heap_4.c **** 		}
 236              		.loc 1 411 4 is_stmt 1 view .LVU87
 411:base/os/FreeRTOS/Source/portable/MemMang/heap_4.c **** 		}
 237              		.loc 1 411 49 is_stmt 0 view .LVU88
 238 0042 1368     		ldr	r3, [r2]
ARM GAS  /tmp/cctXC39Y.s 			page 13


 411:base/os/FreeRTOS/Source/portable/MemMang/heap_4.c **** 		}
 239              		.loc 1 411 66 view .LVU89
 240 0044 1B68     		ldr	r3, [r3]
 411:base/os/FreeRTOS/Source/portable/MemMang/heap_4.c **** 		}
 241              		.loc 1 411 37 view .LVU90
 242 0046 0360     		str	r3, [r0]
 243              	.L11:
 427:base/os/FreeRTOS/Source/portable/MemMang/heap_4.c **** 	{
 244              		.loc 1 427 2 is_stmt 1 view .LVU91
 427:base/os/FreeRTOS/Source/portable/MemMang/heap_4.c **** 	{
 245              		.loc 1 427 4 is_stmt 0 view .LVU92
 246 0048 9042     		cmp	r0, r2
 247 004a 00D0     		beq	.L6
 429:base/os/FreeRTOS/Source/portable/MemMang/heap_4.c **** 	}
 248              		.loc 1 429 3 is_stmt 1 view .LVU93
 429:base/os/FreeRTOS/Source/portable/MemMang/heap_4.c **** 	}
 249              		.loc 1 429 31 is_stmt 0 view .LVU94
 250 004c 1060     		str	r0, [r2]
 251              		.loc 1 433 27 is_stmt 1 view .LVU95
 252              	.L6:
 434:base/os/FreeRTOS/Source/portable/MemMang/heap_4.c **** 	}
 435:base/os/FreeRTOS/Source/portable/MemMang/heap_4.c **** }
 253              		.loc 1 435 1 is_stmt 0 view .LVU96
 254 004e 10BC     		pop	{r4}
 255              	.LCFI1:
 256              		.cfi_remember_state
 257              		.cfi_restore 4
 258              		.cfi_def_cfa_offset 0
 259 0050 7047     		bx	lr
 260              	.L10:
 261              	.LCFI2:
 262              		.cfi_restore_state
 415:base/os/FreeRTOS/Source/portable/MemMang/heap_4.c **** 		}
 263              		.loc 1 415 4 is_stmt 1 view .LVU97
 415:base/os/FreeRTOS/Source/portable/MemMang/heap_4.c **** 		}
 264              		.loc 1 415 37 is_stmt 0 view .LVU98
 265 0052 0460     		str	r4, [r0]
 266 0054 F8E7     		b	.L11
 267              	.L16:
 268              	.LCFI3:
 269              		.cfi_def_cfa_offset 0
 270              		.cfi_restore 4
 415:base/os/FreeRTOS/Source/portable/MemMang/heap_4.c **** 		}
 271              		.loc 1 415 37 view .LVU99
 272 0056 7047     		bx	lr
 273              	.L22:
 274              		.align	2
 275              	.L21:
 276 0058 00000000 		.word	.LANCHOR1
 277 005c 00000000 		.word	.LANCHOR2
 278              		.cfi_endproc
 279              	.LFE10:
 281              		.section	.text.pvPortMalloc,"ax",%progbits
 282              		.align	1
 283              		.global	pvPortMalloc
 284              		.syntax unified
 285              		.thumb
ARM GAS  /tmp/cctXC39Y.s 			page 14


 286              		.thumb_func
 287              		.fpu softvfp
 289              	pvPortMalloc:
 290              	.LVL22:
 291              	.LFB4:
 114:base/os/FreeRTOS/Source/portable/MemMang/heap_4.c **** BlockLink_t *pxBlock, *pxPreviousBlock, *pxNewBlockLink;
 292              		.loc 1 114 1 is_stmt 1 view -0
 293              		.cfi_startproc
 294              		@ args = 0, pretend = 0, frame = 0
 295              		@ frame_needed = 0, uses_anonymous_args = 0
 114:base/os/FreeRTOS/Source/portable/MemMang/heap_4.c **** BlockLink_t *pxBlock, *pxPreviousBlock, *pxNewBlockLink;
 296              		.loc 1 114 1 is_stmt 0 view .LVU101
 297 0000 70B5     		push	{r4, r5, r6, lr}
 298              	.LCFI4:
 299              		.cfi_def_cfa_offset 16
 300              		.cfi_offset 4, -16
 301              		.cfi_offset 5, -12
 302              		.cfi_offset 6, -8
 303              		.cfi_offset 14, -4
 304 0002 0546     		mov	r5, r0
 115:base/os/FreeRTOS/Source/portable/MemMang/heap_4.c **** void *pvReturn = NULL;
 305              		.loc 1 115 1 is_stmt 1 view .LVU102
 116:base/os/FreeRTOS/Source/portable/MemMang/heap_4.c **** 
 306              		.loc 1 116 1 view .LVU103
 307              	.LVL23:
 118:base/os/FreeRTOS/Source/portable/MemMang/heap_4.c **** 	{
 308              		.loc 1 118 2 view .LVU104
 309 0004 FFF7FEFF 		bl	vTaskSuspendAll
 310              	.LVL24:
 122:base/os/FreeRTOS/Source/portable/MemMang/heap_4.c **** 		{
 311              		.loc 1 122 3 view .LVU105
 122:base/os/FreeRTOS/Source/portable/MemMang/heap_4.c **** 		{
 312              		.loc 1 122 13 is_stmt 0 view .LVU106
 313 0008 344B     		ldr	r3, .L42
 314 000a 1B68     		ldr	r3, [r3]
 122:base/os/FreeRTOS/Source/portable/MemMang/heap_4.c **** 		{
 315              		.loc 1 122 5 view .LVU107
 316 000c A3B1     		cbz	r3, .L41
 317              	.L24:
 128:base/os/FreeRTOS/Source/portable/MemMang/heap_4.c **** 		}
 318              		.loc 1 128 28 is_stmt 1 view .LVU108
 135:base/os/FreeRTOS/Source/portable/MemMang/heap_4.c **** 		{
 319              		.loc 1 135 3 view .LVU109
 135:base/os/FreeRTOS/Source/portable/MemMang/heap_4.c **** 		{
 320              		.loc 1 135 21 is_stmt 0 view .LVU110
 321 000e 344B     		ldr	r3, .L42+4
 322 0010 1B68     		ldr	r3, [r3]
 135:base/os/FreeRTOS/Source/portable/MemMang/heap_4.c **** 		{
 323              		.loc 1 135 5 view .LVU111
 324 0012 1D42     		tst	r5, r3
 325 0014 4AD1     		bne	.L35
 139:base/os/FreeRTOS/Source/portable/MemMang/heap_4.c **** 			{
 326              		.loc 1 139 4 is_stmt 1 view .LVU112
 139:base/os/FreeRTOS/Source/portable/MemMang/heap_4.c **** 			{
 327              		.loc 1 139 6 is_stmt 0 view .LVU113
 328 0016 35B1     		cbz	r5, .L26
 141:base/os/FreeRTOS/Source/portable/MemMang/heap_4.c **** 
ARM GAS  /tmp/cctXC39Y.s 			page 15


 329              		.loc 1 141 5 is_stmt 1 view .LVU114
 141:base/os/FreeRTOS/Source/portable/MemMang/heap_4.c **** 
 330              		.loc 1 141 17 is_stmt 0 view .LVU115
 331 0018 0835     		adds	r5, r5, #8
 332              	.LVL25:
 145:base/os/FreeRTOS/Source/portable/MemMang/heap_4.c **** 				{
 333              		.loc 1 145 5 is_stmt 1 view .LVU116
 145:base/os/FreeRTOS/Source/portable/MemMang/heap_4.c **** 				{
 334              		.loc 1 145 7 is_stmt 0 view .LVU117
 335 001a 15F0070F 		tst	r5, #7
 336 001e 02D0     		beq	.L26
 148:base/os/FreeRTOS/Source/portable/MemMang/heap_4.c **** 					configASSERT( ( xWantedSize & portBYTE_ALIGNMENT_MASK ) == 0 );
 337              		.loc 1 148 6 is_stmt 1 view .LVU118
 148:base/os/FreeRTOS/Source/portable/MemMang/heap_4.c **** 					configASSERT( ( xWantedSize & portBYTE_ALIGNMENT_MASK ) == 0 );
 338              		.loc 1 148 18 is_stmt 0 view .LVU119
 339 0020 25F00705 		bic	r5, r5, #7
 340              	.LVL26:
 148:base/os/FreeRTOS/Source/portable/MemMang/heap_4.c **** 					configASSERT( ( xWantedSize & portBYTE_ALIGNMENT_MASK ) == 0 );
 341              		.loc 1 148 18 view .LVU120
 342 0024 0835     		adds	r5, r5, #8
 343              	.LVL27:
 149:base/os/FreeRTOS/Source/portable/MemMang/heap_4.c **** 				}
 344              		.loc 1 149 6 is_stmt 1 view .LVU121
 345              	.L26:
 158:base/os/FreeRTOS/Source/portable/MemMang/heap_4.c **** 			}
 346              		.loc 1 158 29 view .LVU122
 161:base/os/FreeRTOS/Source/portable/MemMang/heap_4.c **** 			{
 347              		.loc 1 161 4 view .LVU123
 161:base/os/FreeRTOS/Source/portable/MemMang/heap_4.c **** 			{
 348              		.loc 1 161 6 is_stmt 0 view .LVU124
 349 0026 002D     		cmp	r5, #0
 350 0028 42D0     		beq	.L36
 161:base/os/FreeRTOS/Source/portable/MemMang/heap_4.c **** 			{
 351              		.loc 1 161 45 discriminator 1 view .LVU125
 352 002a 2E4B     		ldr	r3, .L42+8
 353 002c 1B68     		ldr	r3, [r3]
 161:base/os/FreeRTOS/Source/portable/MemMang/heap_4.c **** 			{
 354              		.loc 1 161 28 discriminator 1 view .LVU126
 355 002e AB42     		cmp	r3, r5
 356 0030 4DD3     		bcc	.L37
 165:base/os/FreeRTOS/Source/portable/MemMang/heap_4.c **** 				pxBlock = xStart.pxNextFreeBlock;
 357              		.loc 1 165 5 is_stmt 1 view .LVU127
 358              	.LVL28:
 166:base/os/FreeRTOS/Source/portable/MemMang/heap_4.c **** 				while( ( pxBlock->xBlockSize < xWantedSize ) && ( pxBlock->pxNextFreeBlock != NULL ) )
 359              		.loc 1 166 5 view .LVU128
 166:base/os/FreeRTOS/Source/portable/MemMang/heap_4.c **** 				while( ( pxBlock->xBlockSize < xWantedSize ) && ( pxBlock->pxNextFreeBlock != NULL ) )
 360              		.loc 1 166 13 is_stmt 0 view .LVU129
 361 0032 2D4A     		ldr	r2, .L42+12
 362 0034 1468     		ldr	r4, [r2]
 363              	.LVL29:
 167:base/os/FreeRTOS/Source/portable/MemMang/heap_4.c **** 				{
 364              		.loc 1 167 5 is_stmt 1 view .LVU130
 167:base/os/FreeRTOS/Source/portable/MemMang/heap_4.c **** 				{
 365              		.loc 1 167 10 is_stmt 0 view .LVU131
 366 0036 04E0     		b	.L28
 367              	.LVL30:
 368              	.L41:
ARM GAS  /tmp/cctXC39Y.s 			page 16


 124:base/os/FreeRTOS/Source/portable/MemMang/heap_4.c **** 		}
 369              		.loc 1 124 4 is_stmt 1 view .LVU132
 370 0038 FFF7FEFF 		bl	prvHeapInit
 371              	.LVL31:
 372 003c E7E7     		b	.L24
 373              	.LVL32:
 374              	.L38:
 169:base/os/FreeRTOS/Source/portable/MemMang/heap_4.c **** 					pxBlock = pxBlock->pxNextFreeBlock;
 375              		.loc 1 169 22 is_stmt 0 view .LVU133
 376 003e 2246     		mov	r2, r4
 377              	.LVL33:
 170:base/os/FreeRTOS/Source/portable/MemMang/heap_4.c **** 				}
 378              		.loc 1 170 14 view .LVU134
 379 0040 1C46     		mov	r4, r3
 380              	.LVL34:
 381              	.L28:
 167:base/os/FreeRTOS/Source/portable/MemMang/heap_4.c **** 				{
 382              		.loc 1 167 50 is_stmt 1 view .LVU135
 167:base/os/FreeRTOS/Source/portable/MemMang/heap_4.c **** 				{
 383              		.loc 1 167 21 is_stmt 0 view .LVU136
 384 0042 6368     		ldr	r3, [r4, #4]
 167:base/os/FreeRTOS/Source/portable/MemMang/heap_4.c **** 				{
 385              		.loc 1 167 50 view .LVU137
 386 0044 AB42     		cmp	r3, r5
 387 0046 02D2     		bcs	.L27
 167:base/os/FreeRTOS/Source/portable/MemMang/heap_4.c **** 				{
 388              		.loc 1 167 62 discriminator 1 view .LVU138
 389 0048 2368     		ldr	r3, [r4]
 167:base/os/FreeRTOS/Source/portable/MemMang/heap_4.c **** 				{
 390              		.loc 1 167 50 discriminator 1 view .LVU139
 391 004a 002B     		cmp	r3, #0
 392 004c F7D1     		bne	.L38
 393              	.L27:
 175:base/os/FreeRTOS/Source/portable/MemMang/heap_4.c **** 				{
 394              		.loc 1 175 5 is_stmt 1 view .LVU140
 175:base/os/FreeRTOS/Source/portable/MemMang/heap_4.c **** 				{
 395              		.loc 1 175 17 is_stmt 0 view .LVU141
 396 004e 234B     		ldr	r3, .L42
 397 0050 1B68     		ldr	r3, [r3]
 175:base/os/FreeRTOS/Source/portable/MemMang/heap_4.c **** 				{
 398              		.loc 1 175 7 view .LVU142
 399 0052 A342     		cmp	r3, r4
 400 0054 3DD0     		beq	.L39
 179:base/os/FreeRTOS/Source/portable/MemMang/heap_4.c **** 
 401              		.loc 1 179 6 is_stmt 1 view .LVU143
 179:base/os/FreeRTOS/Source/portable/MemMang/heap_4.c **** 
 402              		.loc 1 179 61 is_stmt 0 view .LVU144
 403 0056 1668     		ldr	r6, [r2]
 179:base/os/FreeRTOS/Source/portable/MemMang/heap_4.c **** 
 404              		.loc 1 179 15 view .LVU145
 405 0058 0836     		adds	r6, r6, #8
 406              	.LVL35:
 183:base/os/FreeRTOS/Source/portable/MemMang/heap_4.c **** 
 407              		.loc 1 183 6 is_stmt 1 view .LVU146
 183:base/os/FreeRTOS/Source/portable/MemMang/heap_4.c **** 
 408              		.loc 1 183 48 is_stmt 0 view .LVU147
 409 005a 2368     		ldr	r3, [r4]
ARM GAS  /tmp/cctXC39Y.s 			page 17


 183:base/os/FreeRTOS/Source/portable/MemMang/heap_4.c **** 
 410              		.loc 1 183 39 view .LVU148
 411 005c 1360     		str	r3, [r2]
 187:base/os/FreeRTOS/Source/portable/MemMang/heap_4.c **** 					{
 412              		.loc 1 187 6 is_stmt 1 view .LVU149
 187:base/os/FreeRTOS/Source/portable/MemMang/heap_4.c **** 					{
 413              		.loc 1 187 19 is_stmt 0 view .LVU150
 414 005e 6368     		ldr	r3, [r4, #4]
 187:base/os/FreeRTOS/Source/portable/MemMang/heap_4.c **** 					{
 415              		.loc 1 187 32 view .LVU151
 416 0060 5B1B     		subs	r3, r3, r5
 187:base/os/FreeRTOS/Source/portable/MemMang/heap_4.c **** 					{
 417              		.loc 1 187 8 view .LVU152
 418 0062 102B     		cmp	r3, #16
 419 0064 10D9     		bls	.L29
 193:base/os/FreeRTOS/Source/portable/MemMang/heap_4.c **** 						configASSERT( ( ( ( size_t ) pxNewBlockLink ) & portBYTE_ALIGNMENT_MASK ) == 0 );
 420              		.loc 1 193 7 is_stmt 1 view .LVU153
 193:base/os/FreeRTOS/Source/portable/MemMang/heap_4.c **** 						configASSERT( ( ( ( size_t ) pxNewBlockLink ) & portBYTE_ALIGNMENT_MASK ) == 0 );
 421              		.loc 1 193 22 is_stmt 0 view .LVU154
 422 0066 6019     		adds	r0, r4, r5
 423              	.LVL36:
 194:base/os/FreeRTOS/Source/portable/MemMang/heap_4.c **** 
 424              		.loc 1 194 7 is_stmt 1 view .LVU155
 425 0068 10F0070F 		tst	r0, #7
 426 006c 08D0     		beq	.L30
 194:base/os/FreeRTOS/Source/portable/MemMang/heap_4.c **** 
 427              		.loc 1 194 7 view .LVU156
 428              	.LBB12:
 429              	.LBI12:
 430              		.file 2 "base/os/FreeRTOS/Source/portable/GCC/ARM_CM3/portmacro.h"
   1:base/os/FreeRTOS/Source/portable/GCC/ARM_CM3/portmacro.h **** /*
   2:base/os/FreeRTOS/Source/portable/GCC/ARM_CM3/portmacro.h ****  * FreeRTOS Kernel V10.0.1
   3:base/os/FreeRTOS/Source/portable/GCC/ARM_CM3/portmacro.h ****  * Copyright (C) 2017 Amazon.com, Inc. or its affiliates.  All Rights Reserved.
   4:base/os/FreeRTOS/Source/portable/GCC/ARM_CM3/portmacro.h ****  *
   5:base/os/FreeRTOS/Source/portable/GCC/ARM_CM3/portmacro.h ****  * Permission is hereby granted, free of charge, to any person obtaining a copy of
   6:base/os/FreeRTOS/Source/portable/GCC/ARM_CM3/portmacro.h ****  * this software and associated documentation files (the "Software"), to deal in
   7:base/os/FreeRTOS/Source/portable/GCC/ARM_CM3/portmacro.h ****  * the Software without restriction, including without limitation the rights to
   8:base/os/FreeRTOS/Source/portable/GCC/ARM_CM3/portmacro.h ****  * use, copy, modify, merge, publish, distribute, sublicense, and/or sell copies of
   9:base/os/FreeRTOS/Source/portable/GCC/ARM_CM3/portmacro.h ****  * the Software, and to permit persons to whom the Software is furnished to do so,
  10:base/os/FreeRTOS/Source/portable/GCC/ARM_CM3/portmacro.h ****  * subject to the following conditions:
  11:base/os/FreeRTOS/Source/portable/GCC/ARM_CM3/portmacro.h ****  *
  12:base/os/FreeRTOS/Source/portable/GCC/ARM_CM3/portmacro.h ****  * The above copyright notice and this permission notice shall be included in all
  13:base/os/FreeRTOS/Source/portable/GCC/ARM_CM3/portmacro.h ****  * copies or substantial portions of the Software.
  14:base/os/FreeRTOS/Source/portable/GCC/ARM_CM3/portmacro.h ****  *
  15:base/os/FreeRTOS/Source/portable/GCC/ARM_CM3/portmacro.h ****  * THE SOFTWARE IS PROVIDED "AS IS", WITHOUT WARRANTY OF ANY KIND, EXPRESS OR
  16:base/os/FreeRTOS/Source/portable/GCC/ARM_CM3/portmacro.h ****  * IMPLIED, INCLUDING BUT NOT LIMITED TO THE WARRANTIES OF MERCHANTABILITY, FITNESS
  17:base/os/FreeRTOS/Source/portable/GCC/ARM_CM3/portmacro.h ****  * FOR A PARTICULAR PURPOSE AND NONINFRINGEMENT. IN NO EVENT SHALL THE AUTHORS OR
  18:base/os/FreeRTOS/Source/portable/GCC/ARM_CM3/portmacro.h ****  * COPYRIGHT HOLDERS BE LIABLE FOR ANY CLAIM, DAMAGES OR OTHER LIABILITY, WHETHER
  19:base/os/FreeRTOS/Source/portable/GCC/ARM_CM3/portmacro.h ****  * IN AN ACTION OF CONTRACT, TORT OR OTHERWISE, ARISING FROM, OUT OF OR IN
  20:base/os/FreeRTOS/Source/portable/GCC/ARM_CM3/portmacro.h ****  * CONNECTION WITH THE SOFTWARE OR THE USE OR OTHER DEALINGS IN THE SOFTWARE.
  21:base/os/FreeRTOS/Source/portable/GCC/ARM_CM3/portmacro.h ****  *
  22:base/os/FreeRTOS/Source/portable/GCC/ARM_CM3/portmacro.h ****  * http://www.FreeRTOS.org
  23:base/os/FreeRTOS/Source/portable/GCC/ARM_CM3/portmacro.h ****  * http://aws.amazon.com/freertos
  24:base/os/FreeRTOS/Source/portable/GCC/ARM_CM3/portmacro.h ****  *
  25:base/os/FreeRTOS/Source/portable/GCC/ARM_CM3/portmacro.h ****  * 1 tab == 4 spaces!
  26:base/os/FreeRTOS/Source/portable/GCC/ARM_CM3/portmacro.h ****  */
  27:base/os/FreeRTOS/Source/portable/GCC/ARM_CM3/portmacro.h **** 
ARM GAS  /tmp/cctXC39Y.s 			page 18


  28:base/os/FreeRTOS/Source/portable/GCC/ARM_CM3/portmacro.h **** 
  29:base/os/FreeRTOS/Source/portable/GCC/ARM_CM3/portmacro.h **** #ifndef PORTMACRO_H
  30:base/os/FreeRTOS/Source/portable/GCC/ARM_CM3/portmacro.h **** #define PORTMACRO_H
  31:base/os/FreeRTOS/Source/portable/GCC/ARM_CM3/portmacro.h **** 
  32:base/os/FreeRTOS/Source/portable/GCC/ARM_CM3/portmacro.h **** #ifdef __cplusplus
  33:base/os/FreeRTOS/Source/portable/GCC/ARM_CM3/portmacro.h **** extern "C" {
  34:base/os/FreeRTOS/Source/portable/GCC/ARM_CM3/portmacro.h **** #endif
  35:base/os/FreeRTOS/Source/portable/GCC/ARM_CM3/portmacro.h **** 
  36:base/os/FreeRTOS/Source/portable/GCC/ARM_CM3/portmacro.h **** /*-----------------------------------------------------------
  37:base/os/FreeRTOS/Source/portable/GCC/ARM_CM3/portmacro.h ****  * Port specific definitions.
  38:base/os/FreeRTOS/Source/portable/GCC/ARM_CM3/portmacro.h ****  *
  39:base/os/FreeRTOS/Source/portable/GCC/ARM_CM3/portmacro.h ****  * The settings in this file configure FreeRTOS correctly for the
  40:base/os/FreeRTOS/Source/portable/GCC/ARM_CM3/portmacro.h ****  * given hardware and compiler.
  41:base/os/FreeRTOS/Source/portable/GCC/ARM_CM3/portmacro.h ****  *
  42:base/os/FreeRTOS/Source/portable/GCC/ARM_CM3/portmacro.h ****  * These settings should not be altered.
  43:base/os/FreeRTOS/Source/portable/GCC/ARM_CM3/portmacro.h ****  *-----------------------------------------------------------
  44:base/os/FreeRTOS/Source/portable/GCC/ARM_CM3/portmacro.h ****  */
  45:base/os/FreeRTOS/Source/portable/GCC/ARM_CM3/portmacro.h **** 
  46:base/os/FreeRTOS/Source/portable/GCC/ARM_CM3/portmacro.h **** /* Type definitions. */
  47:base/os/FreeRTOS/Source/portable/GCC/ARM_CM3/portmacro.h **** #define portCHAR		char
  48:base/os/FreeRTOS/Source/portable/GCC/ARM_CM3/portmacro.h **** #define portFLOAT		float
  49:base/os/FreeRTOS/Source/portable/GCC/ARM_CM3/portmacro.h **** #define portDOUBLE		double
  50:base/os/FreeRTOS/Source/portable/GCC/ARM_CM3/portmacro.h **** #define portLONG		long
  51:base/os/FreeRTOS/Source/portable/GCC/ARM_CM3/portmacro.h **** #define portSHORT		short
  52:base/os/FreeRTOS/Source/portable/GCC/ARM_CM3/portmacro.h **** #define portSTACK_TYPE	uint32_t
  53:base/os/FreeRTOS/Source/portable/GCC/ARM_CM3/portmacro.h **** #define portBASE_TYPE	long
  54:base/os/FreeRTOS/Source/portable/GCC/ARM_CM3/portmacro.h **** 
  55:base/os/FreeRTOS/Source/portable/GCC/ARM_CM3/portmacro.h **** typedef portSTACK_TYPE StackType_t;
  56:base/os/FreeRTOS/Source/portable/GCC/ARM_CM3/portmacro.h **** typedef long BaseType_t;
  57:base/os/FreeRTOS/Source/portable/GCC/ARM_CM3/portmacro.h **** typedef unsigned long UBaseType_t;
  58:base/os/FreeRTOS/Source/portable/GCC/ARM_CM3/portmacro.h **** 
  59:base/os/FreeRTOS/Source/portable/GCC/ARM_CM3/portmacro.h **** #if( configUSE_16_BIT_TICKS == 1 )
  60:base/os/FreeRTOS/Source/portable/GCC/ARM_CM3/portmacro.h **** 	typedef uint16_t TickType_t;
  61:base/os/FreeRTOS/Source/portable/GCC/ARM_CM3/portmacro.h **** 	#define portMAX_DELAY ( TickType_t ) 0xffff
  62:base/os/FreeRTOS/Source/portable/GCC/ARM_CM3/portmacro.h **** #else
  63:base/os/FreeRTOS/Source/portable/GCC/ARM_CM3/portmacro.h **** 	typedef uint32_t TickType_t;
  64:base/os/FreeRTOS/Source/portable/GCC/ARM_CM3/portmacro.h **** 	#define portMAX_DELAY ( TickType_t ) 0xffffffffUL
  65:base/os/FreeRTOS/Source/portable/GCC/ARM_CM3/portmacro.h **** 
  66:base/os/FreeRTOS/Source/portable/GCC/ARM_CM3/portmacro.h **** 	/* 32-bit tick type on a 32-bit architecture, so reads of the tick count do
  67:base/os/FreeRTOS/Source/portable/GCC/ARM_CM3/portmacro.h **** 	not need to be guarded with a critical section. */
  68:base/os/FreeRTOS/Source/portable/GCC/ARM_CM3/portmacro.h **** 	#define portTICK_TYPE_IS_ATOMIC 1
  69:base/os/FreeRTOS/Source/portable/GCC/ARM_CM3/portmacro.h **** #endif
  70:base/os/FreeRTOS/Source/portable/GCC/ARM_CM3/portmacro.h **** /*-----------------------------------------------------------*/
  71:base/os/FreeRTOS/Source/portable/GCC/ARM_CM3/portmacro.h **** 
  72:base/os/FreeRTOS/Source/portable/GCC/ARM_CM3/portmacro.h **** /* Architecture specifics. */
  73:base/os/FreeRTOS/Source/portable/GCC/ARM_CM3/portmacro.h **** #define portSTACK_GROWTH			( -1 )
  74:base/os/FreeRTOS/Source/portable/GCC/ARM_CM3/portmacro.h **** #define portTICK_PERIOD_MS			( ( TickType_t ) 1000 / configTICK_RATE_HZ )
  75:base/os/FreeRTOS/Source/portable/GCC/ARM_CM3/portmacro.h **** #define portBYTE_ALIGNMENT			8
  76:base/os/FreeRTOS/Source/portable/GCC/ARM_CM3/portmacro.h **** /*-----------------------------------------------------------*/
  77:base/os/FreeRTOS/Source/portable/GCC/ARM_CM3/portmacro.h **** 
  78:base/os/FreeRTOS/Source/portable/GCC/ARM_CM3/portmacro.h **** /* Scheduler utilities. */
  79:base/os/FreeRTOS/Source/portable/GCC/ARM_CM3/portmacro.h **** #define portYIELD() 															\
  80:base/os/FreeRTOS/Source/portable/GCC/ARM_CM3/portmacro.h **** {																				\
  81:base/os/FreeRTOS/Source/portable/GCC/ARM_CM3/portmacro.h **** 	/* Set a PendSV to request a context switch. */								\
  82:base/os/FreeRTOS/Source/portable/GCC/ARM_CM3/portmacro.h **** 	portNVIC_INT_CTRL_REG = portNVIC_PENDSVSET_BIT;								\
  83:base/os/FreeRTOS/Source/portable/GCC/ARM_CM3/portmacro.h **** 																				\
  84:base/os/FreeRTOS/Source/portable/GCC/ARM_CM3/portmacro.h **** 	/* Barriers are normally not required but do ensure the code is completely	\
ARM GAS  /tmp/cctXC39Y.s 			page 19


  85:base/os/FreeRTOS/Source/portable/GCC/ARM_CM3/portmacro.h **** 	within the specified behaviour for the architecture. */						\
  86:base/os/FreeRTOS/Source/portable/GCC/ARM_CM3/portmacro.h **** 	__asm volatile( "dsb" ::: "memory" );										\
  87:base/os/FreeRTOS/Source/portable/GCC/ARM_CM3/portmacro.h **** 	__asm volatile( "isb" );													\
  88:base/os/FreeRTOS/Source/portable/GCC/ARM_CM3/portmacro.h **** }
  89:base/os/FreeRTOS/Source/portable/GCC/ARM_CM3/portmacro.h **** 
  90:base/os/FreeRTOS/Source/portable/GCC/ARM_CM3/portmacro.h **** #define portNVIC_INT_CTRL_REG		( * ( ( volatile uint32_t * ) 0xe000ed04 ) )
  91:base/os/FreeRTOS/Source/portable/GCC/ARM_CM3/portmacro.h **** #define portNVIC_PENDSVSET_BIT		( 1UL << 28UL )
  92:base/os/FreeRTOS/Source/portable/GCC/ARM_CM3/portmacro.h **** #define portEND_SWITCHING_ISR( xSwitchRequired ) if( xSwitchRequired != pdFALSE ) portYIELD()
  93:base/os/FreeRTOS/Source/portable/GCC/ARM_CM3/portmacro.h **** #define portYIELD_FROM_ISR( x ) portEND_SWITCHING_ISR( x )
  94:base/os/FreeRTOS/Source/portable/GCC/ARM_CM3/portmacro.h **** /*-----------------------------------------------------------*/
  95:base/os/FreeRTOS/Source/portable/GCC/ARM_CM3/portmacro.h **** 
  96:base/os/FreeRTOS/Source/portable/GCC/ARM_CM3/portmacro.h **** /* Critical section management. */
  97:base/os/FreeRTOS/Source/portable/GCC/ARM_CM3/portmacro.h **** extern void vPortEnterCritical( void );
  98:base/os/FreeRTOS/Source/portable/GCC/ARM_CM3/portmacro.h **** extern void vPortExitCritical( void );
  99:base/os/FreeRTOS/Source/portable/GCC/ARM_CM3/portmacro.h **** #define portSET_INTERRUPT_MASK_FROM_ISR()		ulPortRaiseBASEPRI()
 100:base/os/FreeRTOS/Source/portable/GCC/ARM_CM3/portmacro.h **** #define portCLEAR_INTERRUPT_MASK_FROM_ISR(x)	vPortSetBASEPRI(x)
 101:base/os/FreeRTOS/Source/portable/GCC/ARM_CM3/portmacro.h **** #define portDISABLE_INTERRUPTS()				vPortRaiseBASEPRI()
 102:base/os/FreeRTOS/Source/portable/GCC/ARM_CM3/portmacro.h **** #define portENABLE_INTERRUPTS()					vPortSetBASEPRI(0)
 103:base/os/FreeRTOS/Source/portable/GCC/ARM_CM3/portmacro.h **** #define portENTER_CRITICAL()					vPortEnterCritical()
 104:base/os/FreeRTOS/Source/portable/GCC/ARM_CM3/portmacro.h **** #define portEXIT_CRITICAL()						vPortExitCritical()
 105:base/os/FreeRTOS/Source/portable/GCC/ARM_CM3/portmacro.h **** 
 106:base/os/FreeRTOS/Source/portable/GCC/ARM_CM3/portmacro.h **** /*-----------------------------------------------------------*/
 107:base/os/FreeRTOS/Source/portable/GCC/ARM_CM3/portmacro.h **** 
 108:base/os/FreeRTOS/Source/portable/GCC/ARM_CM3/portmacro.h **** /* Task function macros as described on the FreeRTOS.org WEB site.  These are
 109:base/os/FreeRTOS/Source/portable/GCC/ARM_CM3/portmacro.h **** not necessary for to use this port.  They are defined so the common demo files
 110:base/os/FreeRTOS/Source/portable/GCC/ARM_CM3/portmacro.h **** (which build with all the ports) will build. */
 111:base/os/FreeRTOS/Source/portable/GCC/ARM_CM3/portmacro.h **** #define portTASK_FUNCTION_PROTO( vFunction, pvParameters ) void vFunction( void *pvParameters )
 112:base/os/FreeRTOS/Source/portable/GCC/ARM_CM3/portmacro.h **** #define portTASK_FUNCTION( vFunction, pvParameters ) void vFunction( void *pvParameters )
 113:base/os/FreeRTOS/Source/portable/GCC/ARM_CM3/portmacro.h **** /*-----------------------------------------------------------*/
 114:base/os/FreeRTOS/Source/portable/GCC/ARM_CM3/portmacro.h **** 
 115:base/os/FreeRTOS/Source/portable/GCC/ARM_CM3/portmacro.h **** /* Tickless idle/low power functionality. */
 116:base/os/FreeRTOS/Source/portable/GCC/ARM_CM3/portmacro.h **** #ifndef portSUPPRESS_TICKS_AND_SLEEP
 117:base/os/FreeRTOS/Source/portable/GCC/ARM_CM3/portmacro.h **** 	extern void vPortSuppressTicksAndSleep( TickType_t xExpectedIdleTime );
 118:base/os/FreeRTOS/Source/portable/GCC/ARM_CM3/portmacro.h **** 	#define portSUPPRESS_TICKS_AND_SLEEP( xExpectedIdleTime ) vPortSuppressTicksAndSleep( xExpectedIdl
 119:base/os/FreeRTOS/Source/portable/GCC/ARM_CM3/portmacro.h **** #endif
 120:base/os/FreeRTOS/Source/portable/GCC/ARM_CM3/portmacro.h **** /*-----------------------------------------------------------*/
 121:base/os/FreeRTOS/Source/portable/GCC/ARM_CM3/portmacro.h **** 
 122:base/os/FreeRTOS/Source/portable/GCC/ARM_CM3/portmacro.h **** /* Architecture specific optimisations. */
 123:base/os/FreeRTOS/Source/portable/GCC/ARM_CM3/portmacro.h **** #ifndef configUSE_PORT_OPTIMISED_TASK_SELECTION
 124:base/os/FreeRTOS/Source/portable/GCC/ARM_CM3/portmacro.h **** 	#define configUSE_PORT_OPTIMISED_TASK_SELECTION 1
 125:base/os/FreeRTOS/Source/portable/GCC/ARM_CM3/portmacro.h **** #endif
 126:base/os/FreeRTOS/Source/portable/GCC/ARM_CM3/portmacro.h **** 
 127:base/os/FreeRTOS/Source/portable/GCC/ARM_CM3/portmacro.h **** #if configUSE_PORT_OPTIMISED_TASK_SELECTION == 1
 128:base/os/FreeRTOS/Source/portable/GCC/ARM_CM3/portmacro.h **** 
 129:base/os/FreeRTOS/Source/portable/GCC/ARM_CM3/portmacro.h **** 	/* Generic helper function. */
 130:base/os/FreeRTOS/Source/portable/GCC/ARM_CM3/portmacro.h **** 	__attribute__( ( always_inline ) ) static inline uint8_t ucPortCountLeadingZeros( uint32_t ulBitma
 131:base/os/FreeRTOS/Source/portable/GCC/ARM_CM3/portmacro.h **** 	{
 132:base/os/FreeRTOS/Source/portable/GCC/ARM_CM3/portmacro.h **** 	uint8_t ucReturn;
 133:base/os/FreeRTOS/Source/portable/GCC/ARM_CM3/portmacro.h **** 
 134:base/os/FreeRTOS/Source/portable/GCC/ARM_CM3/portmacro.h **** 		__asm volatile ( "clz %0, %1" : "=r" ( ucReturn ) : "r" ( ulBitmap ) : "memory" );
 135:base/os/FreeRTOS/Source/portable/GCC/ARM_CM3/portmacro.h **** 		return ucReturn;
 136:base/os/FreeRTOS/Source/portable/GCC/ARM_CM3/portmacro.h **** 	}
 137:base/os/FreeRTOS/Source/portable/GCC/ARM_CM3/portmacro.h **** 
 138:base/os/FreeRTOS/Source/portable/GCC/ARM_CM3/portmacro.h **** 	/* Check the configuration. */
 139:base/os/FreeRTOS/Source/portable/GCC/ARM_CM3/portmacro.h **** 	#if( configMAX_PRIORITIES > 32 )
 140:base/os/FreeRTOS/Source/portable/GCC/ARM_CM3/portmacro.h **** 		#error configUSE_PORT_OPTIMISED_TASK_SELECTION can only be set to 1 when configMAX_PRIORITIES is 
 141:base/os/FreeRTOS/Source/portable/GCC/ARM_CM3/portmacro.h **** 	#endif
ARM GAS  /tmp/cctXC39Y.s 			page 20


 142:base/os/FreeRTOS/Source/portable/GCC/ARM_CM3/portmacro.h **** 
 143:base/os/FreeRTOS/Source/portable/GCC/ARM_CM3/portmacro.h **** 	/* Store/clear the ready priorities in a bit map. */
 144:base/os/FreeRTOS/Source/portable/GCC/ARM_CM3/portmacro.h **** 	#define portRECORD_READY_PRIORITY( uxPriority, uxReadyPriorities ) ( uxReadyPriorities ) |= ( 1UL 
 145:base/os/FreeRTOS/Source/portable/GCC/ARM_CM3/portmacro.h **** 	#define portRESET_READY_PRIORITY( uxPriority, uxReadyPriorities ) ( uxReadyPriorities ) &= ~( 1UL 
 146:base/os/FreeRTOS/Source/portable/GCC/ARM_CM3/portmacro.h **** 
 147:base/os/FreeRTOS/Source/portable/GCC/ARM_CM3/portmacro.h **** 	/*-----------------------------------------------------------*/
 148:base/os/FreeRTOS/Source/portable/GCC/ARM_CM3/portmacro.h **** 
 149:base/os/FreeRTOS/Source/portable/GCC/ARM_CM3/portmacro.h **** 	#define portGET_HIGHEST_PRIORITY( uxTopPriority, uxReadyPriorities ) uxTopPriority = ( 31UL - ( ui
 150:base/os/FreeRTOS/Source/portable/GCC/ARM_CM3/portmacro.h **** 
 151:base/os/FreeRTOS/Source/portable/GCC/ARM_CM3/portmacro.h **** #endif /* configUSE_PORT_OPTIMISED_TASK_SELECTION */
 152:base/os/FreeRTOS/Source/portable/GCC/ARM_CM3/portmacro.h **** 
 153:base/os/FreeRTOS/Source/portable/GCC/ARM_CM3/portmacro.h **** /*-----------------------------------------------------------*/
 154:base/os/FreeRTOS/Source/portable/GCC/ARM_CM3/portmacro.h **** 
 155:base/os/FreeRTOS/Source/portable/GCC/ARM_CM3/portmacro.h **** #ifdef configASSERT
 156:base/os/FreeRTOS/Source/portable/GCC/ARM_CM3/portmacro.h **** 	void vPortValidateInterruptPriority( void );
 157:base/os/FreeRTOS/Source/portable/GCC/ARM_CM3/portmacro.h **** 	#define portASSERT_IF_INTERRUPT_PRIORITY_INVALID() 	vPortValidateInterruptPriority()
 158:base/os/FreeRTOS/Source/portable/GCC/ARM_CM3/portmacro.h **** #endif
 159:base/os/FreeRTOS/Source/portable/GCC/ARM_CM3/portmacro.h **** 
 160:base/os/FreeRTOS/Source/portable/GCC/ARM_CM3/portmacro.h **** /* portNOP() is not required by this port. */
 161:base/os/FreeRTOS/Source/portable/GCC/ARM_CM3/portmacro.h **** #define portNOP()
 162:base/os/FreeRTOS/Source/portable/GCC/ARM_CM3/portmacro.h **** 
 163:base/os/FreeRTOS/Source/portable/GCC/ARM_CM3/portmacro.h **** #define portINLINE	__inline
 164:base/os/FreeRTOS/Source/portable/GCC/ARM_CM3/portmacro.h **** 
 165:base/os/FreeRTOS/Source/portable/GCC/ARM_CM3/portmacro.h **** #ifndef portFORCE_INLINE
 166:base/os/FreeRTOS/Source/portable/GCC/ARM_CM3/portmacro.h **** 	#define portFORCE_INLINE inline __attribute__(( always_inline))
 167:base/os/FreeRTOS/Source/portable/GCC/ARM_CM3/portmacro.h **** #endif
 168:base/os/FreeRTOS/Source/portable/GCC/ARM_CM3/portmacro.h **** 
 169:base/os/FreeRTOS/Source/portable/GCC/ARM_CM3/portmacro.h **** portFORCE_INLINE static BaseType_t xPortIsInsideInterrupt( void )
 170:base/os/FreeRTOS/Source/portable/GCC/ARM_CM3/portmacro.h **** {
 171:base/os/FreeRTOS/Source/portable/GCC/ARM_CM3/portmacro.h **** uint32_t ulCurrentInterrupt;
 172:base/os/FreeRTOS/Source/portable/GCC/ARM_CM3/portmacro.h **** BaseType_t xReturn;
 173:base/os/FreeRTOS/Source/portable/GCC/ARM_CM3/portmacro.h **** 
 174:base/os/FreeRTOS/Source/portable/GCC/ARM_CM3/portmacro.h **** 	/* Obtain the number of the currently executing interrupt. */
 175:base/os/FreeRTOS/Source/portable/GCC/ARM_CM3/portmacro.h **** 	__asm volatile( "mrs %0, ipsr" : "=r"( ulCurrentInterrupt ) :: "memory" );
 176:base/os/FreeRTOS/Source/portable/GCC/ARM_CM3/portmacro.h **** 
 177:base/os/FreeRTOS/Source/portable/GCC/ARM_CM3/portmacro.h **** 	if( ulCurrentInterrupt == 0 )
 178:base/os/FreeRTOS/Source/portable/GCC/ARM_CM3/portmacro.h **** 	{
 179:base/os/FreeRTOS/Source/portable/GCC/ARM_CM3/portmacro.h **** 		xReturn = pdFALSE;
 180:base/os/FreeRTOS/Source/portable/GCC/ARM_CM3/portmacro.h **** 	}
 181:base/os/FreeRTOS/Source/portable/GCC/ARM_CM3/portmacro.h **** 	else
 182:base/os/FreeRTOS/Source/portable/GCC/ARM_CM3/portmacro.h **** 	{
 183:base/os/FreeRTOS/Source/portable/GCC/ARM_CM3/portmacro.h **** 		xReturn = pdTRUE;
 184:base/os/FreeRTOS/Source/portable/GCC/ARM_CM3/portmacro.h **** 	}
 185:base/os/FreeRTOS/Source/portable/GCC/ARM_CM3/portmacro.h **** 
 186:base/os/FreeRTOS/Source/portable/GCC/ARM_CM3/portmacro.h **** 	return xReturn;
 187:base/os/FreeRTOS/Source/portable/GCC/ARM_CM3/portmacro.h **** }
 188:base/os/FreeRTOS/Source/portable/GCC/ARM_CM3/portmacro.h **** 
 189:base/os/FreeRTOS/Source/portable/GCC/ARM_CM3/portmacro.h **** /*-----------------------------------------------------------*/
 190:base/os/FreeRTOS/Source/portable/GCC/ARM_CM3/portmacro.h **** 
 191:base/os/FreeRTOS/Source/portable/GCC/ARM_CM3/portmacro.h **** portFORCE_INLINE static void vPortRaiseBASEPRI( void )
 431              		.loc 2 191 30 view .LVU157
 432              	.LBB13:
 192:base/os/FreeRTOS/Source/portable/GCC/ARM_CM3/portmacro.h **** {
 193:base/os/FreeRTOS/Source/portable/GCC/ARM_CM3/portmacro.h **** uint32_t ulNewBASEPRI;
 433              		.loc 2 193 1 view .LVU158
 194:base/os/FreeRTOS/Source/portable/GCC/ARM_CM3/portmacro.h **** 
 195:base/os/FreeRTOS/Source/portable/GCC/ARM_CM3/portmacro.h **** 	__asm volatile
ARM GAS  /tmp/cctXC39Y.s 			page 21


 434              		.loc 2 195 2 view .LVU159
 435              		.syntax unified
 436              	@ 195 "base/os/FreeRTOS/Source/portable/GCC/ARM_CM3/portmacro.h" 1
 437 006e 4FF05003 			mov r3, #80												
 438 0072 83F31188 		msr basepri, r3											
 439 0076 BFF36F8F 		isb														
 440 007a BFF34F8F 		dsb														
 441              	
 442              	@ 0 "" 2
 443              	.LVL37:
 444              		.thumb
 445              		.syntax unified
 446              	.L31:
 447              		.loc 2 195 2 is_stmt 0 view .LVU160
 448              	.LBE13:
 449              	.LBE12:
 194:base/os/FreeRTOS/Source/portable/MemMang/heap_4.c **** 
 450              		.loc 1 194 7 is_stmt 1 discriminator 3 view .LVU161
 194:base/os/FreeRTOS/Source/portable/MemMang/heap_4.c **** 
 451              		.loc 1 194 7 discriminator 3 view .LVU162
 452 007e FEE7     		b	.L31
 453              	.L30:
 194:base/os/FreeRTOS/Source/portable/MemMang/heap_4.c **** 
 454              		.loc 1 194 87 discriminator 2 view .LVU163
 198:base/os/FreeRTOS/Source/portable/MemMang/heap_4.c **** 						pxBlock->xBlockSize = xWantedSize;
 455              		.loc 1 198 7 discriminator 2 view .LVU164
 198:base/os/FreeRTOS/Source/portable/MemMang/heap_4.c **** 						pxBlock->xBlockSize = xWantedSize;
 456              		.loc 1 198 34 is_stmt 0 discriminator 2 view .LVU165
 457 0080 4360     		str	r3, [r0, #4]
 199:base/os/FreeRTOS/Source/portable/MemMang/heap_4.c **** 
 458              		.loc 1 199 7 is_stmt 1 discriminator 2 view .LVU166
 199:base/os/FreeRTOS/Source/portable/MemMang/heap_4.c **** 
 459              		.loc 1 199 27 is_stmt 0 discriminator 2 view .LVU167
 460 0082 6560     		str	r5, [r4, #4]
 202:base/os/FreeRTOS/Source/portable/MemMang/heap_4.c **** 					}
 461              		.loc 1 202 7 is_stmt 1 discriminator 2 view .LVU168
 462 0084 FFF7FEFF 		bl	prvInsertBlockIntoFreeList
 463              	.LVL38:
 464              	.L29:
 206:base/os/FreeRTOS/Source/portable/MemMang/heap_4.c **** 					}
 465              		.loc 1 206 31 view .LVU169
 209:base/os/FreeRTOS/Source/portable/MemMang/heap_4.c **** 
 466              		.loc 1 209 6 view .LVU170
 209:base/os/FreeRTOS/Source/portable/MemMang/heap_4.c **** 
 467              		.loc 1 209 36 is_stmt 0 view .LVU171
 468 0088 6268     		ldr	r2, [r4, #4]
 209:base/os/FreeRTOS/Source/portable/MemMang/heap_4.c **** 
 469              		.loc 1 209 26 view .LVU172
 470 008a 1649     		ldr	r1, .L42+8
 471 008c 0B68     		ldr	r3, [r1]
 472 008e 9B1A     		subs	r3, r3, r2
 473 0090 0B60     		str	r3, [r1]
 211:base/os/FreeRTOS/Source/portable/MemMang/heap_4.c **** 					{
 474              		.loc 1 211 6 is_stmt 1 view .LVU173
 211:base/os/FreeRTOS/Source/portable/MemMang/heap_4.c **** 					{
 475              		.loc 1 211 30 is_stmt 0 view .LVU174
 476 0092 1649     		ldr	r1, .L42+16
ARM GAS  /tmp/cctXC39Y.s 			page 22


 477 0094 0968     		ldr	r1, [r1]
 211:base/os/FreeRTOS/Source/portable/MemMang/heap_4.c **** 					{
 478              		.loc 1 211 8 view .LVU175
 479 0096 8B42     		cmp	r3, r1
 480 0098 01D2     		bcs	.L32
 213:base/os/FreeRTOS/Source/portable/MemMang/heap_4.c **** 					}
 481              		.loc 1 213 7 is_stmt 1 view .LVU176
 213:base/os/FreeRTOS/Source/portable/MemMang/heap_4.c **** 					}
 482              		.loc 1 213 38 is_stmt 0 view .LVU177
 483 009a 1449     		ldr	r1, .L42+16
 484 009c 0B60     		str	r3, [r1]
 485              	.L32:
 217:base/os/FreeRTOS/Source/portable/MemMang/heap_4.c **** 					}
 486              		.loc 1 217 31 is_stmt 1 view .LVU178
 222:base/os/FreeRTOS/Source/portable/MemMang/heap_4.c **** 					pxBlock->pxNextFreeBlock = NULL;
 487              		.loc 1 222 6 view .LVU179
 222:base/os/FreeRTOS/Source/portable/MemMang/heap_4.c **** 					pxBlock->pxNextFreeBlock = NULL;
 488              		.loc 1 222 26 is_stmt 0 view .LVU180
 489 009e 104B     		ldr	r3, .L42+4
 490 00a0 1B68     		ldr	r3, [r3]
 491 00a2 1343     		orrs	r3, r3, r2
 492 00a4 6360     		str	r3, [r4, #4]
 223:base/os/FreeRTOS/Source/portable/MemMang/heap_4.c **** 				}
 493              		.loc 1 223 6 is_stmt 1 view .LVU181
 223:base/os/FreeRTOS/Source/portable/MemMang/heap_4.c **** 				}
 494              		.loc 1 223 31 is_stmt 0 view .LVU182
 495 00a6 0023     		movs	r3, #0
 496 00a8 2360     		str	r3, [r4]
 497 00aa 02E0     		b	.L25
 498              	.LVL39:
 499              	.L35:
 116:base/os/FreeRTOS/Source/portable/MemMang/heap_4.c **** 
 500              		.loc 1 116 7 view .LVU183
 501 00ac 0026     		movs	r6, #0
 502 00ae 00E0     		b	.L25
 503              	.L36:
 116:base/os/FreeRTOS/Source/portable/MemMang/heap_4.c **** 
 504              		.loc 1 116 7 view .LVU184
 505 00b0 0026     		movs	r6, #0
 506              	.LVL40:
 507              	.L25:
 237:base/os/FreeRTOS/Source/portable/MemMang/heap_4.c **** 		}
 508              		.loc 1 237 28 is_stmt 1 view .LVU185
 240:base/os/FreeRTOS/Source/portable/MemMang/heap_4.c **** 	}
 509              		.loc 1 240 39 view .LVU186
 242:base/os/FreeRTOS/Source/portable/MemMang/heap_4.c **** 
 510              		.loc 1 242 2 view .LVU187
 242:base/os/FreeRTOS/Source/portable/MemMang/heap_4.c **** 
 511              		.loc 1 242 11 is_stmt 0 view .LVU188
 512 00b2 FFF7FEFF 		bl	xTaskResumeAll
 513              	.LVL41:
 258:base/os/FreeRTOS/Source/portable/MemMang/heap_4.c **** 	return pvReturn;
 514              		.loc 1 258 2 is_stmt 1 view .LVU189
 515 00b6 16F0070F 		tst	r6, #7
 516 00ba 0CD0     		beq	.L23
 258:base/os/FreeRTOS/Source/portable/MemMang/heap_4.c **** 	return pvReturn;
 517              		.loc 1 258 2 view .LVU190
ARM GAS  /tmp/cctXC39Y.s 			page 23


 518              	.LBB14:
 519              	.LBI14:
 191:base/os/FreeRTOS/Source/portable/GCC/ARM_CM3/portmacro.h **** {
 520              		.loc 2 191 30 view .LVU191
 521              	.LBB15:
 193:base/os/FreeRTOS/Source/portable/GCC/ARM_CM3/portmacro.h **** 
 522              		.loc 2 193 1 view .LVU192
 523              		.loc 2 195 2 view .LVU193
 524              		.syntax unified
 525              	@ 195 "base/os/FreeRTOS/Source/portable/GCC/ARM_CM3/portmacro.h" 1
 526 00bc 4FF05003 			mov r3, #80												
 527 00c0 83F31188 		msr basepri, r3											
 528 00c4 BFF36F8F 		isb														
 529 00c8 BFF34F8F 		dsb														
 530              	
 531              	@ 0 "" 2
 532              	.LVL42:
 533              		.thumb
 534              		.syntax unified
 535              	.L34:
 536              		.loc 2 195 2 is_stmt 0 view .LVU194
 537              	.LBE15:
 538              	.LBE14:
 258:base/os/FreeRTOS/Source/portable/MemMang/heap_4.c **** 	return pvReturn;
 539              		.loc 1 258 2 is_stmt 1 discriminator 5 view .LVU195
 258:base/os/FreeRTOS/Source/portable/MemMang/heap_4.c **** 	return pvReturn;
 540              		.loc 1 258 2 discriminator 5 view .LVU196
 541 00cc FEE7     		b	.L34
 542              	.LVL43:
 543              	.L37:
 116:base/os/FreeRTOS/Source/portable/MemMang/heap_4.c **** 
 544              		.loc 1 116 7 is_stmt 0 view .LVU197
 545 00ce 0026     		movs	r6, #0
 546 00d0 EFE7     		b	.L25
 547              	.LVL44:
 548              	.L39:
 116:base/os/FreeRTOS/Source/portable/MemMang/heap_4.c **** 
 549              		.loc 1 116 7 view .LVU198
 550 00d2 0026     		movs	r6, #0
 551 00d4 EDE7     		b	.L25
 552              	.LVL45:
 553              	.L23:
 260:base/os/FreeRTOS/Source/portable/MemMang/heap_4.c **** /*-----------------------------------------------------------*/
 554              		.loc 1 260 1 view .LVU199
 555 00d6 3046     		mov	r0, r6
 556 00d8 70BD     		pop	{r4, r5, r6, pc}
 557              	.LVL46:
 558              	.L43:
 260:base/os/FreeRTOS/Source/portable/MemMang/heap_4.c **** /*-----------------------------------------------------------*/
 559              		.loc 1 260 1 view .LVU200
 560 00da 00BF     		.align	2
 561              	.L42:
 562 00dc 00000000 		.word	.LANCHOR2
 563 00e0 00000000 		.word	.LANCHOR5
 564 00e4 00000000 		.word	.LANCHOR4
 565 00e8 00000000 		.word	.LANCHOR1
 566 00ec 00000000 		.word	.LANCHOR3
ARM GAS  /tmp/cctXC39Y.s 			page 24


 567              		.cfi_endproc
 568              	.LFE4:
 570              		.section	.text.vPortFree,"ax",%progbits
 571              		.align	1
 572              		.global	vPortFree
 573              		.syntax unified
 574              		.thumb
 575              		.thumb_func
 576              		.fpu softvfp
 578              	vPortFree:
 579              	.LVL47:
 580              	.LFB5:
 264:base/os/FreeRTOS/Source/portable/MemMang/heap_4.c **** uint8_t *puc = ( uint8_t * ) pv;
 581              		.loc 1 264 1 is_stmt 1 view -0
 582              		.cfi_startproc
 583              		@ args = 0, pretend = 0, frame = 0
 584              		@ frame_needed = 0, uses_anonymous_args = 0
 265:base/os/FreeRTOS/Source/portable/MemMang/heap_4.c **** BlockLink_t *pxLink;
 585              		.loc 1 265 1 view .LVU202
 266:base/os/FreeRTOS/Source/portable/MemMang/heap_4.c **** 
 586              		.loc 1 266 1 view .LVU203
 268:base/os/FreeRTOS/Source/portable/MemMang/heap_4.c **** 	{
 587              		.loc 1 268 2 view .LVU204
 268:base/os/FreeRTOS/Source/portable/MemMang/heap_4.c **** 	{
 588              		.loc 1 268 4 is_stmt 0 view .LVU205
 589 0000 80B3     		cbz	r0, .L51
 264:base/os/FreeRTOS/Source/portable/MemMang/heap_4.c **** uint8_t *puc = ( uint8_t * ) pv;
 590              		.loc 1 264 1 view .LVU206
 591 0002 38B5     		push	{r3, r4, r5, lr}
 592              	.LCFI5:
 593              		.cfi_def_cfa_offset 16
 594              		.cfi_offset 3, -16
 595              		.cfi_offset 4, -12
 596              		.cfi_offset 5, -8
 597              		.cfi_offset 14, -4
 598 0004 0446     		mov	r4, r0
 272:base/os/FreeRTOS/Source/portable/MemMang/heap_4.c **** 
 599              		.loc 1 272 3 is_stmt 1 view .LVU207
 272:base/os/FreeRTOS/Source/portable/MemMang/heap_4.c **** 
 600              		.loc 1 272 7 is_stmt 0 view .LVU208
 601 0006 A0F10805 		sub	r5, r0, #8
 602              	.LVL48:
 275:base/os/FreeRTOS/Source/portable/MemMang/heap_4.c **** 
 603              		.loc 1 275 3 is_stmt 1 view .LVU209
 278:base/os/FreeRTOS/Source/portable/MemMang/heap_4.c **** 		configASSERT( pxLink->pxNextFreeBlock == NULL );
 604              		.loc 1 278 3 view .LVU210
 605 000a 50F8043C 		ldr	r3, [r0, #-4]
 606 000e 164A     		ldr	r2, .L54
 607 0010 1268     		ldr	r2, [r2]
 608 0012 1342     		tst	r3, r2
 609 0014 08D1     		bne	.L46
 278:base/os/FreeRTOS/Source/portable/MemMang/heap_4.c **** 		configASSERT( pxLink->pxNextFreeBlock == NULL );
 610              		.loc 1 278 3 view .LVU211
 611              	.LBB16:
 612              	.LBI16:
 191:base/os/FreeRTOS/Source/portable/GCC/ARM_CM3/portmacro.h **** {
 613              		.loc 2 191 30 view .LVU212
ARM GAS  /tmp/cctXC39Y.s 			page 25


 614              	.LBB17:
 193:base/os/FreeRTOS/Source/portable/GCC/ARM_CM3/portmacro.h **** 
 615              		.loc 2 193 1 view .LVU213
 616              		.loc 2 195 2 view .LVU214
 617              		.syntax unified
 618              	@ 195 "base/os/FreeRTOS/Source/portable/GCC/ARM_CM3/portmacro.h" 1
 619 0016 4FF05003 			mov r3, #80												
 620 001a 83F31188 		msr basepri, r3											
 621 001e BFF36F8F 		isb														
 622 0022 BFF34F8F 		dsb														
 623              	
 624              	@ 0 "" 2
 625              	.LVL49:
 626              		.thumb
 627              		.syntax unified
 628              	.L47:
 629              		.loc 2 195 2 is_stmt 0 view .LVU215
 630              	.LBE17:
 631              	.LBE16:
 278:base/os/FreeRTOS/Source/portable/MemMang/heap_4.c **** 		configASSERT( pxLink->pxNextFreeBlock == NULL );
 632              		.loc 1 278 3 is_stmt 1 discriminator 1 view .LVU216
 278:base/os/FreeRTOS/Source/portable/MemMang/heap_4.c **** 		configASSERT( pxLink->pxNextFreeBlock == NULL );
 633              		.loc 1 278 3 discriminator 1 view .LVU217
 634 0026 FEE7     		b	.L47
 635              	.L46:
 278:base/os/FreeRTOS/Source/portable/MemMang/heap_4.c **** 		configASSERT( pxLink->pxNextFreeBlock == NULL );
 636              		.loc 1 278 67 discriminator 2 view .LVU218
 279:base/os/FreeRTOS/Source/portable/MemMang/heap_4.c **** 
 637              		.loc 1 279 3 discriminator 2 view .LVU219
 638 0028 50F8081C 		ldr	r1, [r0, #-8]
 639 002c 41B1     		cbz	r1, .L48
 279:base/os/FreeRTOS/Source/portable/MemMang/heap_4.c **** 
 640              		.loc 1 279 3 view .LVU220
 641              	.LBB18:
 642              	.LBI18:
 191:base/os/FreeRTOS/Source/portable/GCC/ARM_CM3/portmacro.h **** {
 643              		.loc 2 191 30 view .LVU221
 644              	.LBB19:
 193:base/os/FreeRTOS/Source/portable/GCC/ARM_CM3/portmacro.h **** 
 645              		.loc 2 193 1 view .LVU222
 646              		.loc 2 195 2 view .LVU223
 647              		.syntax unified
 648              	@ 195 "base/os/FreeRTOS/Source/portable/GCC/ARM_CM3/portmacro.h" 1
 649 002e 4FF05003 			mov r3, #80												
 650 0032 83F31188 		msr basepri, r3											
 651 0036 BFF36F8F 		isb														
 652 003a BFF34F8F 		dsb														
 653              	
 654              	@ 0 "" 2
 655              	.LVL50:
 656              		.thumb
 657              		.syntax unified
 658              	.L49:
 659              		.loc 2 195 2 is_stmt 0 view .LVU224
 660              	.LBE19:
 661              	.LBE18:
 279:base/os/FreeRTOS/Source/portable/MemMang/heap_4.c **** 
ARM GAS  /tmp/cctXC39Y.s 			page 26


 662              		.loc 1 279 3 is_stmt 1 discriminator 2 view .LVU225
 279:base/os/FreeRTOS/Source/portable/MemMang/heap_4.c **** 
 663              		.loc 1 279 3 discriminator 2 view .LVU226
 664 003e FEE7     		b	.L49
 665              	.L48:
 279:base/os/FreeRTOS/Source/portable/MemMang/heap_4.c **** 
 666              		.loc 1 279 50 view .LVU227
 281:base/os/FreeRTOS/Source/portable/MemMang/heap_4.c **** 		{
 667              		.loc 1 281 3 view .LVU228
 283:base/os/FreeRTOS/Source/portable/MemMang/heap_4.c **** 			{
 668              		.loc 1 283 4 view .LVU229
 287:base/os/FreeRTOS/Source/portable/MemMang/heap_4.c **** 
 669              		.loc 1 287 5 view .LVU230
 287:base/os/FreeRTOS/Source/portable/MemMang/heap_4.c **** 
 670              		.loc 1 287 24 is_stmt 0 view .LVU231
 671 0040 23EA0203 		bic	r3, r3, r2
 672 0044 40F8043C 		str	r3, [r0, #-4]
 289:base/os/FreeRTOS/Source/portable/MemMang/heap_4.c **** 				{
 673              		.loc 1 289 5 is_stmt 1 view .LVU232
 674 0048 FFF7FEFF 		bl	vTaskSuspendAll
 675              	.LVL51:
 292:base/os/FreeRTOS/Source/portable/MemMang/heap_4.c **** 					traceFREE( pv, pxLink->xBlockSize );
 676              		.loc 1 292 6 view .LVU233
 292:base/os/FreeRTOS/Source/portable/MemMang/heap_4.c **** 					traceFREE( pv, pxLink->xBlockSize );
 677              		.loc 1 292 35 is_stmt 0 view .LVU234
 678 004c 54F8041C 		ldr	r1, [r4, #-4]
 292:base/os/FreeRTOS/Source/portable/MemMang/heap_4.c **** 					traceFREE( pv, pxLink->xBlockSize );
 679              		.loc 1 292 26 view .LVU235
 680 0050 064A     		ldr	r2, .L54+4
 681 0052 1368     		ldr	r3, [r2]
 682 0054 0B44     		add	r3, r3, r1
 683 0056 1360     		str	r3, [r2]
 293:base/os/FreeRTOS/Source/portable/MemMang/heap_4.c **** 					prvInsertBlockIntoFreeList( ( ( BlockLink_t * ) pxLink ) );
 684              		.loc 1 293 41 is_stmt 1 view .LVU236
 294:base/os/FreeRTOS/Source/portable/MemMang/heap_4.c **** 				}
 685              		.loc 1 294 6 view .LVU237
 686 0058 2846     		mov	r0, r5
 687 005a FFF7FEFF 		bl	prvInsertBlockIntoFreeList
 688              	.LVL52:
 296:base/os/FreeRTOS/Source/portable/MemMang/heap_4.c **** 			}
 689              		.loc 1 296 5 view .LVU238
 296:base/os/FreeRTOS/Source/portable/MemMang/heap_4.c **** 			}
 690              		.loc 1 296 14 is_stmt 0 view .LVU239
 691 005e FFF7FEFF 		bl	xTaskResumeAll
 692              	.LVL53:
 305:base/os/FreeRTOS/Source/portable/MemMang/heap_4.c **** 		}
 693              		.loc 1 305 28 is_stmt 1 view .LVU240
 308:base/os/FreeRTOS/Source/portable/MemMang/heap_4.c **** /*-----------------------------------------------------------*/
 694              		.loc 1 308 1 is_stmt 0 view .LVU241
 695 0062 38BD     		pop	{r3, r4, r5, pc}
 696              	.LVL54:
 697              	.L51:
 698              	.LCFI6:
 699              		.cfi_def_cfa_offset 0
 700              		.cfi_restore 3
 701              		.cfi_restore 4
 702              		.cfi_restore 5
ARM GAS  /tmp/cctXC39Y.s 			page 27


 703              		.cfi_restore 14
 308:base/os/FreeRTOS/Source/portable/MemMang/heap_4.c **** /*-----------------------------------------------------------*/
 704              		.loc 1 308 1 view .LVU242
 705 0064 7047     		bx	lr
 706              	.L55:
 707 0066 00BF     		.align	2
 708              	.L54:
 709 0068 00000000 		.word	.LANCHOR5
 710 006c 00000000 		.word	.LANCHOR4
 711              		.cfi_endproc
 712              	.LFE5:
 714              		.section	.text.xPortGetFreeHeapSize,"ax",%progbits
 715              		.align	1
 716              		.global	xPortGetFreeHeapSize
 717              		.syntax unified
 718              		.thumb
 719              		.thumb_func
 720              		.fpu softvfp
 722              	xPortGetFreeHeapSize:
 723              	.LFB6:
 312:base/os/FreeRTOS/Source/portable/MemMang/heap_4.c **** 	return xFreeBytesRemaining;
 724              		.loc 1 312 1 is_stmt 1 view -0
 725              		.cfi_startproc
 726              		@ args = 0, pretend = 0, frame = 0
 727              		@ frame_needed = 0, uses_anonymous_args = 0
 728              		@ link register save eliminated.
 313:base/os/FreeRTOS/Source/portable/MemMang/heap_4.c **** }
 729              		.loc 1 313 2 view .LVU244
 314:base/os/FreeRTOS/Source/portable/MemMang/heap_4.c **** /*-----------------------------------------------------------*/
 730              		.loc 1 314 1 is_stmt 0 view .LVU245
 731 0000 014B     		ldr	r3, .L57
 732 0002 1868     		ldr	r0, [r3]
 733 0004 7047     		bx	lr
 734              	.L58:
 735 0006 00BF     		.align	2
 736              	.L57:
 737 0008 00000000 		.word	.LANCHOR4
 738              		.cfi_endproc
 739              	.LFE6:
 741              		.section	.text.xPortGetMinimumEverFreeHeapSize,"ax",%progbits
 742              		.align	1
 743              		.global	xPortGetMinimumEverFreeHeapSize
 744              		.syntax unified
 745              		.thumb
 746              		.thumb_func
 747              		.fpu softvfp
 749              	xPortGetMinimumEverFreeHeapSize:
 750              	.LFB7:
 318:base/os/FreeRTOS/Source/portable/MemMang/heap_4.c **** 	return xMinimumEverFreeBytesRemaining;
 751              		.loc 1 318 1 is_stmt 1 view -0
 752              		.cfi_startproc
 753              		@ args = 0, pretend = 0, frame = 0
 754              		@ frame_needed = 0, uses_anonymous_args = 0
 755              		@ link register save eliminated.
 319:base/os/FreeRTOS/Source/portable/MemMang/heap_4.c **** }
 756              		.loc 1 319 2 view .LVU247
 320:base/os/FreeRTOS/Source/portable/MemMang/heap_4.c **** /*-----------------------------------------------------------*/
ARM GAS  /tmp/cctXC39Y.s 			page 28


 757              		.loc 1 320 1 is_stmt 0 view .LVU248
 758 0000 014B     		ldr	r3, .L60
 759 0002 1868     		ldr	r0, [r3]
 760 0004 7047     		bx	lr
 761              	.L61:
 762 0006 00BF     		.align	2
 763              	.L60:
 764 0008 00000000 		.word	.LANCHOR3
 765              		.cfi_endproc
 766              	.LFE7:
 768              		.section	.text.vPortInitialiseBlocks,"ax",%progbits
 769              		.align	1
 770              		.global	vPortInitialiseBlocks
 771              		.syntax unified
 772              		.thumb
 773              		.thumb_func
 774              		.fpu softvfp
 776              	vPortInitialiseBlocks:
 777              	.LFB8:
 324:base/os/FreeRTOS/Source/portable/MemMang/heap_4.c **** 	/* This just exists to keep the linker quiet. */
 778              		.loc 1 324 1 is_stmt 1 view -0
 779              		.cfi_startproc
 780              		@ args = 0, pretend = 0, frame = 0
 781              		@ frame_needed = 0, uses_anonymous_args = 0
 782              		@ link register save eliminated.
 326:base/os/FreeRTOS/Source/portable/MemMang/heap_4.c **** /*-----------------------------------------------------------*/
 783              		.loc 1 326 1 view .LVU250
 784 0000 7047     		bx	lr
 785              		.cfi_endproc
 786              	.LFE8:
 788              		.section	.bss.pxEnd,"aw",%nobits
 789              		.align	2
 790              		.set	.LANCHOR2,. + 0
 793              	pxEnd:
 794 0000 00000000 		.space	4
 795              		.section	.bss.ucHeap,"aw",%nobits
 796              		.align	2
 797              		.set	.LANCHOR0,. + 0
 800              	ucHeap:
 801 0000 00000000 		.space	3072
 801      00000000 
 801      00000000 
 801      00000000 
 801      00000000 
 802              		.section	.bss.xBlockAllocatedBit,"aw",%nobits
 803              		.align	2
 804              		.set	.LANCHOR5,. + 0
 807              	xBlockAllocatedBit:
 808 0000 00000000 		.space	4
 809              		.section	.bss.xFreeBytesRemaining,"aw",%nobits
 810              		.align	2
 811              		.set	.LANCHOR4,. + 0
 814              	xFreeBytesRemaining:
 815 0000 00000000 		.space	4
 816              		.section	.bss.xMinimumEverFreeBytesRemaining,"aw",%nobits
 817              		.align	2
 818              		.set	.LANCHOR3,. + 0
ARM GAS  /tmp/cctXC39Y.s 			page 29


 821              	xMinimumEverFreeBytesRemaining:
 822 0000 00000000 		.space	4
 823              		.section	.bss.xStart,"aw",%nobits
 824              		.align	2
 825              		.set	.LANCHOR1,. + 0
 828              	xStart:
 829 0000 00000000 		.space	8
 829      00000000 
 830              		.text
 831              	.Letext0:
 832              		.file 3 "/usr/lib/gcc/arm-none-eabi/11.1.0/include/stddef.h"
 833              		.file 4 "/usr/arm-none-eabi/include/machine/_default_types.h"
 834              		.file 5 "/usr/arm-none-eabi/include/sys/_stdint.h"
 835              		.file 6 "base/os/FreeRTOS/Source/include/task.h"
ARM GAS  /tmp/cctXC39Y.s 			page 30

