ARM GAS  /tmp/ccqu0Abp.s 			page 1


   1              		.cpu cortex-m3
   2              		.eabi_attribute 20, 1
   3              		.eabi_attribute 21, 1
   4              		.eabi_attribute 23, 3
   5              		.eabi_attribute 24, 1
   6              		.eabi_attribute 25, 1
   7              		.eabi_attribute 26, 1
   8              		.eabi_attribute 30, 1
   9              		.eabi_attribute 34, 1
  10              		.eabi_attribute 18, 4
  11              		.file	"stm32f1xx_hal_dma.c"
  12              		.text
  13              	.Ltext0:
  14              		.cfi_sections	.debug_frame
  15              		.section	.text.DMA_SetConfig,"ax",%progbits
  16              		.align	1
  17              		.arch armv7-m
  18              		.syntax unified
  19              		.thumb
  20              		.thumb_func
  21              		.fpu softvfp
  23              	DMA_SetConfig:
  24              	.LVL0:
  25              	.LFB77:
  26              		.file 1 "base/chip/Drivers/STM32F1xx_HAL_Driver/Src/stm32f1xx_hal_dma.c"
   1:base/chip/Drivers/STM32F1xx_HAL_Driver/Src/stm32f1xx_hal_dma.c **** /**
   2:base/chip/Drivers/STM32F1xx_HAL_Driver/Src/stm32f1xx_hal_dma.c ****   ******************************************************************************
   3:base/chip/Drivers/STM32F1xx_HAL_Driver/Src/stm32f1xx_hal_dma.c ****   * @file    stm32f1xx_hal_dma.c
   4:base/chip/Drivers/STM32F1xx_HAL_Driver/Src/stm32f1xx_hal_dma.c ****   * @author  MCD Application Team
   5:base/chip/Drivers/STM32F1xx_HAL_Driver/Src/stm32f1xx_hal_dma.c ****   * @brief   DMA HAL module driver.
   6:base/chip/Drivers/STM32F1xx_HAL_Driver/Src/stm32f1xx_hal_dma.c ****   *         This file provides firmware functions to manage the following
   7:base/chip/Drivers/STM32F1xx_HAL_Driver/Src/stm32f1xx_hal_dma.c ****   *         functionalities of the Direct Memory Access (DMA) peripheral:
   8:base/chip/Drivers/STM32F1xx_HAL_Driver/Src/stm32f1xx_hal_dma.c ****   *           + Initialization and de-initialization functions
   9:base/chip/Drivers/STM32F1xx_HAL_Driver/Src/stm32f1xx_hal_dma.c ****   *           + IO operation functions
  10:base/chip/Drivers/STM32F1xx_HAL_Driver/Src/stm32f1xx_hal_dma.c ****   *           + Peripheral State and errors functions
  11:base/chip/Drivers/STM32F1xx_HAL_Driver/Src/stm32f1xx_hal_dma.c ****   @verbatim
  12:base/chip/Drivers/STM32F1xx_HAL_Driver/Src/stm32f1xx_hal_dma.c ****   ==============================================================================
  13:base/chip/Drivers/STM32F1xx_HAL_Driver/Src/stm32f1xx_hal_dma.c ****                         ##### How to use this driver #####
  14:base/chip/Drivers/STM32F1xx_HAL_Driver/Src/stm32f1xx_hal_dma.c ****   ==============================================================================
  15:base/chip/Drivers/STM32F1xx_HAL_Driver/Src/stm32f1xx_hal_dma.c ****   [..]
  16:base/chip/Drivers/STM32F1xx_HAL_Driver/Src/stm32f1xx_hal_dma.c ****    (#) Enable and configure the peripheral to be connected to the DMA Channel
  17:base/chip/Drivers/STM32F1xx_HAL_Driver/Src/stm32f1xx_hal_dma.c ****        (except for internal SRAM / FLASH memories: no initialization is 
  18:base/chip/Drivers/STM32F1xx_HAL_Driver/Src/stm32f1xx_hal_dma.c ****        necessary). Please refer to the Reference manual for connection between peripherals
  19:base/chip/Drivers/STM32F1xx_HAL_Driver/Src/stm32f1xx_hal_dma.c ****        and DMA requests.
  20:base/chip/Drivers/STM32F1xx_HAL_Driver/Src/stm32f1xx_hal_dma.c **** 
  21:base/chip/Drivers/STM32F1xx_HAL_Driver/Src/stm32f1xx_hal_dma.c ****    (#) For a given Channel, program the required configuration through the following parameters:
  22:base/chip/Drivers/STM32F1xx_HAL_Driver/Src/stm32f1xx_hal_dma.c ****        Channel request, Transfer Direction, Source and Destination data formats,
  23:base/chip/Drivers/STM32F1xx_HAL_Driver/Src/stm32f1xx_hal_dma.c ****        Circular or Normal mode, Channel Priority level, Source and Destination Increment mode
  24:base/chip/Drivers/STM32F1xx_HAL_Driver/Src/stm32f1xx_hal_dma.c ****        using HAL_DMA_Init() function.
  25:base/chip/Drivers/STM32F1xx_HAL_Driver/Src/stm32f1xx_hal_dma.c **** 
  26:base/chip/Drivers/STM32F1xx_HAL_Driver/Src/stm32f1xx_hal_dma.c ****    (#) Use HAL_DMA_GetState() function to return the DMA state and HAL_DMA_GetError() in case of er
  27:base/chip/Drivers/STM32F1xx_HAL_Driver/Src/stm32f1xx_hal_dma.c ****        detection.
  28:base/chip/Drivers/STM32F1xx_HAL_Driver/Src/stm32f1xx_hal_dma.c ****                     
  29:base/chip/Drivers/STM32F1xx_HAL_Driver/Src/stm32f1xx_hal_dma.c ****    (#) Use HAL_DMA_Abort() function to abort the current transfer
  30:base/chip/Drivers/STM32F1xx_HAL_Driver/Src/stm32f1xx_hal_dma.c ****                    
  31:base/chip/Drivers/STM32F1xx_HAL_Driver/Src/stm32f1xx_hal_dma.c ****      -@-   In Memory-to-Memory transfer mode, Circular mode is not allowed.
  32:base/chip/Drivers/STM32F1xx_HAL_Driver/Src/stm32f1xx_hal_dma.c ****      *** Polling mode IO operation ***
ARM GAS  /tmp/ccqu0Abp.s 			page 2


  33:base/chip/Drivers/STM32F1xx_HAL_Driver/Src/stm32f1xx_hal_dma.c ****      =================================
  34:base/chip/Drivers/STM32F1xx_HAL_Driver/Src/stm32f1xx_hal_dma.c ****     [..]
  35:base/chip/Drivers/STM32F1xx_HAL_Driver/Src/stm32f1xx_hal_dma.c ****           (+) Use HAL_DMA_Start() to start DMA transfer after the configuration of Source
  36:base/chip/Drivers/STM32F1xx_HAL_Driver/Src/stm32f1xx_hal_dma.c ****               address and destination address and the Length of data to be transferred
  37:base/chip/Drivers/STM32F1xx_HAL_Driver/Src/stm32f1xx_hal_dma.c ****           (+) Use HAL_DMA_PollForTransfer() to poll for the end of current transfer, in this
  38:base/chip/Drivers/STM32F1xx_HAL_Driver/Src/stm32f1xx_hal_dma.c ****               case a fixed Timeout can be configured by User depending from his application.
  39:base/chip/Drivers/STM32F1xx_HAL_Driver/Src/stm32f1xx_hal_dma.c **** 
  40:base/chip/Drivers/STM32F1xx_HAL_Driver/Src/stm32f1xx_hal_dma.c ****      *** Interrupt mode IO operation ***
  41:base/chip/Drivers/STM32F1xx_HAL_Driver/Src/stm32f1xx_hal_dma.c ****      ===================================
  42:base/chip/Drivers/STM32F1xx_HAL_Driver/Src/stm32f1xx_hal_dma.c ****     [..]
  43:base/chip/Drivers/STM32F1xx_HAL_Driver/Src/stm32f1xx_hal_dma.c ****           (+) Configure the DMA interrupt priority using HAL_NVIC_SetPriority()
  44:base/chip/Drivers/STM32F1xx_HAL_Driver/Src/stm32f1xx_hal_dma.c ****           (+) Enable the DMA IRQ handler using HAL_NVIC_EnableIRQ()
  45:base/chip/Drivers/STM32F1xx_HAL_Driver/Src/stm32f1xx_hal_dma.c ****           (+) Use HAL_DMA_Start_IT() to start DMA transfer after the configuration of
  46:base/chip/Drivers/STM32F1xx_HAL_Driver/Src/stm32f1xx_hal_dma.c ****               Source address and destination address and the Length of data to be transferred.
  47:base/chip/Drivers/STM32F1xx_HAL_Driver/Src/stm32f1xx_hal_dma.c ****               In this case the DMA interrupt is configured
  48:base/chip/Drivers/STM32F1xx_HAL_Driver/Src/stm32f1xx_hal_dma.c ****           (+) Use HAL_DMA_IRQHandler() called under DMA_IRQHandler() Interrupt subroutine
  49:base/chip/Drivers/STM32F1xx_HAL_Driver/Src/stm32f1xx_hal_dma.c ****           (+) At the end of data transfer HAL_DMA_IRQHandler() function is executed and user can
  50:base/chip/Drivers/STM32F1xx_HAL_Driver/Src/stm32f1xx_hal_dma.c ****               add his own function by customization of function pointer XferCpltCallback and
  51:base/chip/Drivers/STM32F1xx_HAL_Driver/Src/stm32f1xx_hal_dma.c ****               XferErrorCallback (i.e. a member of DMA handle structure).
  52:base/chip/Drivers/STM32F1xx_HAL_Driver/Src/stm32f1xx_hal_dma.c **** 
  53:base/chip/Drivers/STM32F1xx_HAL_Driver/Src/stm32f1xx_hal_dma.c ****      *** DMA HAL driver macros list ***
  54:base/chip/Drivers/STM32F1xx_HAL_Driver/Src/stm32f1xx_hal_dma.c ****      ============================================= 
  55:base/chip/Drivers/STM32F1xx_HAL_Driver/Src/stm32f1xx_hal_dma.c ****       [..]
  56:base/chip/Drivers/STM32F1xx_HAL_Driver/Src/stm32f1xx_hal_dma.c ****        Below the list of most used macros in DMA HAL driver.
  57:base/chip/Drivers/STM32F1xx_HAL_Driver/Src/stm32f1xx_hal_dma.c **** 
  58:base/chip/Drivers/STM32F1xx_HAL_Driver/Src/stm32f1xx_hal_dma.c ****        (+) __HAL_DMA_ENABLE: Enable the specified DMA Channel.
  59:base/chip/Drivers/STM32F1xx_HAL_Driver/Src/stm32f1xx_hal_dma.c ****        (+) __HAL_DMA_DISABLE: Disable the specified DMA Channel.
  60:base/chip/Drivers/STM32F1xx_HAL_Driver/Src/stm32f1xx_hal_dma.c ****        (+) __HAL_DMA_GET_FLAG: Get the DMA Channel pending flags.
  61:base/chip/Drivers/STM32F1xx_HAL_Driver/Src/stm32f1xx_hal_dma.c ****        (+) __HAL_DMA_CLEAR_FLAG: Clear the DMA Channel pending flags.
  62:base/chip/Drivers/STM32F1xx_HAL_Driver/Src/stm32f1xx_hal_dma.c ****        (+) __HAL_DMA_ENABLE_IT: Enable the specified DMA Channel interrupts.
  63:base/chip/Drivers/STM32F1xx_HAL_Driver/Src/stm32f1xx_hal_dma.c ****        (+) __HAL_DMA_DISABLE_IT: Disable the specified DMA Channel interrupts.
  64:base/chip/Drivers/STM32F1xx_HAL_Driver/Src/stm32f1xx_hal_dma.c ****        (+) __HAL_DMA_GET_IT_SOURCE: Check whether the specified DMA Channel interrupt has occurred 
  65:base/chip/Drivers/STM32F1xx_HAL_Driver/Src/stm32f1xx_hal_dma.c **** 
  66:base/chip/Drivers/STM32F1xx_HAL_Driver/Src/stm32f1xx_hal_dma.c ****      [..] 
  67:base/chip/Drivers/STM32F1xx_HAL_Driver/Src/stm32f1xx_hal_dma.c ****       (@) You can refer to the DMA HAL driver header file for more useful macros  
  68:base/chip/Drivers/STM32F1xx_HAL_Driver/Src/stm32f1xx_hal_dma.c **** 
  69:base/chip/Drivers/STM32F1xx_HAL_Driver/Src/stm32f1xx_hal_dma.c ****   @endverbatim
  70:base/chip/Drivers/STM32F1xx_HAL_Driver/Src/stm32f1xx_hal_dma.c ****   ******************************************************************************
  71:base/chip/Drivers/STM32F1xx_HAL_Driver/Src/stm32f1xx_hal_dma.c ****   * @attention
  72:base/chip/Drivers/STM32F1xx_HAL_Driver/Src/stm32f1xx_hal_dma.c ****   *
  73:base/chip/Drivers/STM32F1xx_HAL_Driver/Src/stm32f1xx_hal_dma.c ****   * <h2><center>&copy; Copyright (c) 2016 STMicroelectronics.
  74:base/chip/Drivers/STM32F1xx_HAL_Driver/Src/stm32f1xx_hal_dma.c ****   * All rights reserved.</center></h2>
  75:base/chip/Drivers/STM32F1xx_HAL_Driver/Src/stm32f1xx_hal_dma.c ****   *
  76:base/chip/Drivers/STM32F1xx_HAL_Driver/Src/stm32f1xx_hal_dma.c ****   * This software component is licensed by ST under BSD 3-Clause license,
  77:base/chip/Drivers/STM32F1xx_HAL_Driver/Src/stm32f1xx_hal_dma.c ****   * the "License"; You may not use this file except in compliance with the
  78:base/chip/Drivers/STM32F1xx_HAL_Driver/Src/stm32f1xx_hal_dma.c ****   * License. You may obtain a copy of the License at:
  79:base/chip/Drivers/STM32F1xx_HAL_Driver/Src/stm32f1xx_hal_dma.c ****   *                        opensource.org/licenses/BSD-3-Clause
  80:base/chip/Drivers/STM32F1xx_HAL_Driver/Src/stm32f1xx_hal_dma.c ****   *
  81:base/chip/Drivers/STM32F1xx_HAL_Driver/Src/stm32f1xx_hal_dma.c ****   ******************************************************************************
  82:base/chip/Drivers/STM32F1xx_HAL_Driver/Src/stm32f1xx_hal_dma.c ****   */
  83:base/chip/Drivers/STM32F1xx_HAL_Driver/Src/stm32f1xx_hal_dma.c **** 
  84:base/chip/Drivers/STM32F1xx_HAL_Driver/Src/stm32f1xx_hal_dma.c **** /* Includes ------------------------------------------------------------------*/
  85:base/chip/Drivers/STM32F1xx_HAL_Driver/Src/stm32f1xx_hal_dma.c **** #include "stm32f1xx_hal.h"
  86:base/chip/Drivers/STM32F1xx_HAL_Driver/Src/stm32f1xx_hal_dma.c **** 
  87:base/chip/Drivers/STM32F1xx_HAL_Driver/Src/stm32f1xx_hal_dma.c **** /** @addtogroup STM32F1xx_HAL_Driver
  88:base/chip/Drivers/STM32F1xx_HAL_Driver/Src/stm32f1xx_hal_dma.c ****   * @{
  89:base/chip/Drivers/STM32F1xx_HAL_Driver/Src/stm32f1xx_hal_dma.c ****   */
ARM GAS  /tmp/ccqu0Abp.s 			page 3


  90:base/chip/Drivers/STM32F1xx_HAL_Driver/Src/stm32f1xx_hal_dma.c **** 
  91:base/chip/Drivers/STM32F1xx_HAL_Driver/Src/stm32f1xx_hal_dma.c **** /** @defgroup DMA DMA
  92:base/chip/Drivers/STM32F1xx_HAL_Driver/Src/stm32f1xx_hal_dma.c ****   * @brief DMA HAL module driver
  93:base/chip/Drivers/STM32F1xx_HAL_Driver/Src/stm32f1xx_hal_dma.c ****   * @{
  94:base/chip/Drivers/STM32F1xx_HAL_Driver/Src/stm32f1xx_hal_dma.c ****   */
  95:base/chip/Drivers/STM32F1xx_HAL_Driver/Src/stm32f1xx_hal_dma.c **** 
  96:base/chip/Drivers/STM32F1xx_HAL_Driver/Src/stm32f1xx_hal_dma.c **** #ifdef HAL_DMA_MODULE_ENABLED
  97:base/chip/Drivers/STM32F1xx_HAL_Driver/Src/stm32f1xx_hal_dma.c **** 
  98:base/chip/Drivers/STM32F1xx_HAL_Driver/Src/stm32f1xx_hal_dma.c **** /* Private typedef -----------------------------------------------------------*/
  99:base/chip/Drivers/STM32F1xx_HAL_Driver/Src/stm32f1xx_hal_dma.c **** /* Private define ------------------------------------------------------------*/
 100:base/chip/Drivers/STM32F1xx_HAL_Driver/Src/stm32f1xx_hal_dma.c **** /* Private macro -------------------------------------------------------------*/
 101:base/chip/Drivers/STM32F1xx_HAL_Driver/Src/stm32f1xx_hal_dma.c **** /* Private variables ---------------------------------------------------------*/
 102:base/chip/Drivers/STM32F1xx_HAL_Driver/Src/stm32f1xx_hal_dma.c **** /* Private function prototypes -----------------------------------------------*/
 103:base/chip/Drivers/STM32F1xx_HAL_Driver/Src/stm32f1xx_hal_dma.c **** /** @defgroup DMA_Private_Functions DMA Private Functions
 104:base/chip/Drivers/STM32F1xx_HAL_Driver/Src/stm32f1xx_hal_dma.c ****   * @{
 105:base/chip/Drivers/STM32F1xx_HAL_Driver/Src/stm32f1xx_hal_dma.c ****   */
 106:base/chip/Drivers/STM32F1xx_HAL_Driver/Src/stm32f1xx_hal_dma.c **** static void DMA_SetConfig(DMA_HandleTypeDef *hdma, uint32_t SrcAddress, uint32_t DstAddress, uint32
 107:base/chip/Drivers/STM32F1xx_HAL_Driver/Src/stm32f1xx_hal_dma.c **** /**
 108:base/chip/Drivers/STM32F1xx_HAL_Driver/Src/stm32f1xx_hal_dma.c ****   * @}
 109:base/chip/Drivers/STM32F1xx_HAL_Driver/Src/stm32f1xx_hal_dma.c ****   */
 110:base/chip/Drivers/STM32F1xx_HAL_Driver/Src/stm32f1xx_hal_dma.c **** 
 111:base/chip/Drivers/STM32F1xx_HAL_Driver/Src/stm32f1xx_hal_dma.c **** /* Exported functions ---------------------------------------------------------*/
 112:base/chip/Drivers/STM32F1xx_HAL_Driver/Src/stm32f1xx_hal_dma.c **** 
 113:base/chip/Drivers/STM32F1xx_HAL_Driver/Src/stm32f1xx_hal_dma.c **** /** @defgroup DMA_Exported_Functions DMA Exported Functions
 114:base/chip/Drivers/STM32F1xx_HAL_Driver/Src/stm32f1xx_hal_dma.c ****   * @{
 115:base/chip/Drivers/STM32F1xx_HAL_Driver/Src/stm32f1xx_hal_dma.c ****   */
 116:base/chip/Drivers/STM32F1xx_HAL_Driver/Src/stm32f1xx_hal_dma.c **** 
 117:base/chip/Drivers/STM32F1xx_HAL_Driver/Src/stm32f1xx_hal_dma.c **** /** @defgroup DMA_Exported_Functions_Group1 Initialization and de-initialization functions
 118:base/chip/Drivers/STM32F1xx_HAL_Driver/Src/stm32f1xx_hal_dma.c ****   *  @brief   Initialization and de-initialization functions 
 119:base/chip/Drivers/STM32F1xx_HAL_Driver/Src/stm32f1xx_hal_dma.c ****   *
 120:base/chip/Drivers/STM32F1xx_HAL_Driver/Src/stm32f1xx_hal_dma.c **** @verbatim
 121:base/chip/Drivers/STM32F1xx_HAL_Driver/Src/stm32f1xx_hal_dma.c ****  ===============================================================================
 122:base/chip/Drivers/STM32F1xx_HAL_Driver/Src/stm32f1xx_hal_dma.c ****              ##### Initialization and de-initialization functions  #####
 123:base/chip/Drivers/STM32F1xx_HAL_Driver/Src/stm32f1xx_hal_dma.c ****  ===============================================================================
 124:base/chip/Drivers/STM32F1xx_HAL_Driver/Src/stm32f1xx_hal_dma.c ****     [..]
 125:base/chip/Drivers/STM32F1xx_HAL_Driver/Src/stm32f1xx_hal_dma.c ****     This section provides functions allowing to initialize the DMA Channel source
 126:base/chip/Drivers/STM32F1xx_HAL_Driver/Src/stm32f1xx_hal_dma.c ****     and destination addresses, incrementation and data sizes, transfer direction, 
 127:base/chip/Drivers/STM32F1xx_HAL_Driver/Src/stm32f1xx_hal_dma.c ****     circular/normal mode selection, memory-to-memory mode selection and Channel priority value.
 128:base/chip/Drivers/STM32F1xx_HAL_Driver/Src/stm32f1xx_hal_dma.c ****     [..]
 129:base/chip/Drivers/STM32F1xx_HAL_Driver/Src/stm32f1xx_hal_dma.c ****     The HAL_DMA_Init() function follows the DMA configuration procedures as described in
 130:base/chip/Drivers/STM32F1xx_HAL_Driver/Src/stm32f1xx_hal_dma.c ****     reference manual.  
 131:base/chip/Drivers/STM32F1xx_HAL_Driver/Src/stm32f1xx_hal_dma.c **** 
 132:base/chip/Drivers/STM32F1xx_HAL_Driver/Src/stm32f1xx_hal_dma.c **** @endverbatim
 133:base/chip/Drivers/STM32F1xx_HAL_Driver/Src/stm32f1xx_hal_dma.c ****   * @{
 134:base/chip/Drivers/STM32F1xx_HAL_Driver/Src/stm32f1xx_hal_dma.c ****   */
 135:base/chip/Drivers/STM32F1xx_HAL_Driver/Src/stm32f1xx_hal_dma.c **** 
 136:base/chip/Drivers/STM32F1xx_HAL_Driver/Src/stm32f1xx_hal_dma.c **** /**
 137:base/chip/Drivers/STM32F1xx_HAL_Driver/Src/stm32f1xx_hal_dma.c ****   * @brief  Initialize the DMA according to the specified
 138:base/chip/Drivers/STM32F1xx_HAL_Driver/Src/stm32f1xx_hal_dma.c ****   *         parameters in the DMA_InitTypeDef and initialize the associated handle.
 139:base/chip/Drivers/STM32F1xx_HAL_Driver/Src/stm32f1xx_hal_dma.c ****   * @param  hdma: Pointer to a DMA_HandleTypeDef structure that contains
 140:base/chip/Drivers/STM32F1xx_HAL_Driver/Src/stm32f1xx_hal_dma.c ****   *               the configuration information for the specified DMA Channel.
 141:base/chip/Drivers/STM32F1xx_HAL_Driver/Src/stm32f1xx_hal_dma.c ****   * @retval HAL status
 142:base/chip/Drivers/STM32F1xx_HAL_Driver/Src/stm32f1xx_hal_dma.c ****   */
 143:base/chip/Drivers/STM32F1xx_HAL_Driver/Src/stm32f1xx_hal_dma.c **** HAL_StatusTypeDef HAL_DMA_Init(DMA_HandleTypeDef *hdma)
 144:base/chip/Drivers/STM32F1xx_HAL_Driver/Src/stm32f1xx_hal_dma.c **** {
 145:base/chip/Drivers/STM32F1xx_HAL_Driver/Src/stm32f1xx_hal_dma.c ****   uint32_t tmp = 0U;
 146:base/chip/Drivers/STM32F1xx_HAL_Driver/Src/stm32f1xx_hal_dma.c **** 
ARM GAS  /tmp/ccqu0Abp.s 			page 4


 147:base/chip/Drivers/STM32F1xx_HAL_Driver/Src/stm32f1xx_hal_dma.c ****   /* Check the DMA handle allocation */
 148:base/chip/Drivers/STM32F1xx_HAL_Driver/Src/stm32f1xx_hal_dma.c ****   if(hdma == NULL)
 149:base/chip/Drivers/STM32F1xx_HAL_Driver/Src/stm32f1xx_hal_dma.c ****   {
 150:base/chip/Drivers/STM32F1xx_HAL_Driver/Src/stm32f1xx_hal_dma.c ****     return HAL_ERROR;
 151:base/chip/Drivers/STM32F1xx_HAL_Driver/Src/stm32f1xx_hal_dma.c ****   }
 152:base/chip/Drivers/STM32F1xx_HAL_Driver/Src/stm32f1xx_hal_dma.c **** 
 153:base/chip/Drivers/STM32F1xx_HAL_Driver/Src/stm32f1xx_hal_dma.c ****   /* Check the parameters */
 154:base/chip/Drivers/STM32F1xx_HAL_Driver/Src/stm32f1xx_hal_dma.c ****   assert_param(IS_DMA_ALL_INSTANCE(hdma->Instance));
 155:base/chip/Drivers/STM32F1xx_HAL_Driver/Src/stm32f1xx_hal_dma.c ****   assert_param(IS_DMA_DIRECTION(hdma->Init.Direction));
 156:base/chip/Drivers/STM32F1xx_HAL_Driver/Src/stm32f1xx_hal_dma.c ****   assert_param(IS_DMA_PERIPHERAL_INC_STATE(hdma->Init.PeriphInc));
 157:base/chip/Drivers/STM32F1xx_HAL_Driver/Src/stm32f1xx_hal_dma.c ****   assert_param(IS_DMA_MEMORY_INC_STATE(hdma->Init.MemInc));
 158:base/chip/Drivers/STM32F1xx_HAL_Driver/Src/stm32f1xx_hal_dma.c ****   assert_param(IS_DMA_PERIPHERAL_DATA_SIZE(hdma->Init.PeriphDataAlignment));
 159:base/chip/Drivers/STM32F1xx_HAL_Driver/Src/stm32f1xx_hal_dma.c ****   assert_param(IS_DMA_MEMORY_DATA_SIZE(hdma->Init.MemDataAlignment));
 160:base/chip/Drivers/STM32F1xx_HAL_Driver/Src/stm32f1xx_hal_dma.c ****   assert_param(IS_DMA_MODE(hdma->Init.Mode));
 161:base/chip/Drivers/STM32F1xx_HAL_Driver/Src/stm32f1xx_hal_dma.c ****   assert_param(IS_DMA_PRIORITY(hdma->Init.Priority));
 162:base/chip/Drivers/STM32F1xx_HAL_Driver/Src/stm32f1xx_hal_dma.c **** 
 163:base/chip/Drivers/STM32F1xx_HAL_Driver/Src/stm32f1xx_hal_dma.c **** #if defined (DMA2)
 164:base/chip/Drivers/STM32F1xx_HAL_Driver/Src/stm32f1xx_hal_dma.c ****   /* calculation of the channel index */
 165:base/chip/Drivers/STM32F1xx_HAL_Driver/Src/stm32f1xx_hal_dma.c ****   if ((uint32_t)(hdma->Instance) < (uint32_t)(DMA2_Channel1))
 166:base/chip/Drivers/STM32F1xx_HAL_Driver/Src/stm32f1xx_hal_dma.c ****   {
 167:base/chip/Drivers/STM32F1xx_HAL_Driver/Src/stm32f1xx_hal_dma.c ****     /* DMA1 */
 168:base/chip/Drivers/STM32F1xx_HAL_Driver/Src/stm32f1xx_hal_dma.c ****     hdma->ChannelIndex = (((uint32_t)hdma->Instance - (uint32_t)DMA1_Channel1) / ((uint32_t)DMA1_Ch
 169:base/chip/Drivers/STM32F1xx_HAL_Driver/Src/stm32f1xx_hal_dma.c ****     hdma->DmaBaseAddress = DMA1;
 170:base/chip/Drivers/STM32F1xx_HAL_Driver/Src/stm32f1xx_hal_dma.c ****   }
 171:base/chip/Drivers/STM32F1xx_HAL_Driver/Src/stm32f1xx_hal_dma.c ****   else 
 172:base/chip/Drivers/STM32F1xx_HAL_Driver/Src/stm32f1xx_hal_dma.c ****   {
 173:base/chip/Drivers/STM32F1xx_HAL_Driver/Src/stm32f1xx_hal_dma.c ****     /* DMA2 */
 174:base/chip/Drivers/STM32F1xx_HAL_Driver/Src/stm32f1xx_hal_dma.c ****     hdma->ChannelIndex = (((uint32_t)hdma->Instance - (uint32_t)DMA2_Channel1) / ((uint32_t)DMA2_Ch
 175:base/chip/Drivers/STM32F1xx_HAL_Driver/Src/stm32f1xx_hal_dma.c ****     hdma->DmaBaseAddress = DMA2;
 176:base/chip/Drivers/STM32F1xx_HAL_Driver/Src/stm32f1xx_hal_dma.c ****   }
 177:base/chip/Drivers/STM32F1xx_HAL_Driver/Src/stm32f1xx_hal_dma.c **** #else
 178:base/chip/Drivers/STM32F1xx_HAL_Driver/Src/stm32f1xx_hal_dma.c ****   /* DMA1 */
 179:base/chip/Drivers/STM32F1xx_HAL_Driver/Src/stm32f1xx_hal_dma.c ****   hdma->ChannelIndex = (((uint32_t)hdma->Instance - (uint32_t)DMA1_Channel1) / ((uint32_t)DMA1_Chan
 180:base/chip/Drivers/STM32F1xx_HAL_Driver/Src/stm32f1xx_hal_dma.c ****   hdma->DmaBaseAddress = DMA1;
 181:base/chip/Drivers/STM32F1xx_HAL_Driver/Src/stm32f1xx_hal_dma.c **** #endif /* DMA2 */
 182:base/chip/Drivers/STM32F1xx_HAL_Driver/Src/stm32f1xx_hal_dma.c **** 
 183:base/chip/Drivers/STM32F1xx_HAL_Driver/Src/stm32f1xx_hal_dma.c ****   /* Change DMA peripheral state */
 184:base/chip/Drivers/STM32F1xx_HAL_Driver/Src/stm32f1xx_hal_dma.c ****   hdma->State = HAL_DMA_STATE_BUSY;
 185:base/chip/Drivers/STM32F1xx_HAL_Driver/Src/stm32f1xx_hal_dma.c **** 
 186:base/chip/Drivers/STM32F1xx_HAL_Driver/Src/stm32f1xx_hal_dma.c ****   /* Get the CR register value */
 187:base/chip/Drivers/STM32F1xx_HAL_Driver/Src/stm32f1xx_hal_dma.c ****   tmp = hdma->Instance->CCR;
 188:base/chip/Drivers/STM32F1xx_HAL_Driver/Src/stm32f1xx_hal_dma.c **** 
 189:base/chip/Drivers/STM32F1xx_HAL_Driver/Src/stm32f1xx_hal_dma.c ****   /* Clear PL, MSIZE, PSIZE, MINC, PINC, CIRC and DIR bits */
 190:base/chip/Drivers/STM32F1xx_HAL_Driver/Src/stm32f1xx_hal_dma.c ****   tmp &= ((uint32_t)~(DMA_CCR_PL    | DMA_CCR_MSIZE  | DMA_CCR_PSIZE  | \
 191:base/chip/Drivers/STM32F1xx_HAL_Driver/Src/stm32f1xx_hal_dma.c ****                       DMA_CCR_MINC  | DMA_CCR_PINC   | DMA_CCR_CIRC   | \
 192:base/chip/Drivers/STM32F1xx_HAL_Driver/Src/stm32f1xx_hal_dma.c ****                       DMA_CCR_DIR));
 193:base/chip/Drivers/STM32F1xx_HAL_Driver/Src/stm32f1xx_hal_dma.c **** 
 194:base/chip/Drivers/STM32F1xx_HAL_Driver/Src/stm32f1xx_hal_dma.c ****   /* Prepare the DMA Channel configuration */
 195:base/chip/Drivers/STM32F1xx_HAL_Driver/Src/stm32f1xx_hal_dma.c ****   tmp |=  hdma->Init.Direction        |
 196:base/chip/Drivers/STM32F1xx_HAL_Driver/Src/stm32f1xx_hal_dma.c ****           hdma->Init.PeriphInc           | hdma->Init.MemInc           |
 197:base/chip/Drivers/STM32F1xx_HAL_Driver/Src/stm32f1xx_hal_dma.c ****           hdma->Init.PeriphDataAlignment | hdma->Init.MemDataAlignment |
 198:base/chip/Drivers/STM32F1xx_HAL_Driver/Src/stm32f1xx_hal_dma.c ****           hdma->Init.Mode                | hdma->Init.Priority;
 199:base/chip/Drivers/STM32F1xx_HAL_Driver/Src/stm32f1xx_hal_dma.c **** 
 200:base/chip/Drivers/STM32F1xx_HAL_Driver/Src/stm32f1xx_hal_dma.c ****   /* Write to DMA Channel CR register */
 201:base/chip/Drivers/STM32F1xx_HAL_Driver/Src/stm32f1xx_hal_dma.c ****   hdma->Instance->CCR = tmp;
 202:base/chip/Drivers/STM32F1xx_HAL_Driver/Src/stm32f1xx_hal_dma.c **** 
 203:base/chip/Drivers/STM32F1xx_HAL_Driver/Src/stm32f1xx_hal_dma.c ****   /* Initialise the error code */
ARM GAS  /tmp/ccqu0Abp.s 			page 5


 204:base/chip/Drivers/STM32F1xx_HAL_Driver/Src/stm32f1xx_hal_dma.c ****   hdma->ErrorCode = HAL_DMA_ERROR_NONE;
 205:base/chip/Drivers/STM32F1xx_HAL_Driver/Src/stm32f1xx_hal_dma.c **** 
 206:base/chip/Drivers/STM32F1xx_HAL_Driver/Src/stm32f1xx_hal_dma.c ****   /* Initialize the DMA state*/
 207:base/chip/Drivers/STM32F1xx_HAL_Driver/Src/stm32f1xx_hal_dma.c ****   hdma->State = HAL_DMA_STATE_READY;
 208:base/chip/Drivers/STM32F1xx_HAL_Driver/Src/stm32f1xx_hal_dma.c ****   /* Allocate lock resource and initialize it */
 209:base/chip/Drivers/STM32F1xx_HAL_Driver/Src/stm32f1xx_hal_dma.c ****   hdma->Lock = HAL_UNLOCKED;
 210:base/chip/Drivers/STM32F1xx_HAL_Driver/Src/stm32f1xx_hal_dma.c **** 
 211:base/chip/Drivers/STM32F1xx_HAL_Driver/Src/stm32f1xx_hal_dma.c ****   return HAL_OK;
 212:base/chip/Drivers/STM32F1xx_HAL_Driver/Src/stm32f1xx_hal_dma.c **** }
 213:base/chip/Drivers/STM32F1xx_HAL_Driver/Src/stm32f1xx_hal_dma.c **** 
 214:base/chip/Drivers/STM32F1xx_HAL_Driver/Src/stm32f1xx_hal_dma.c **** /**
 215:base/chip/Drivers/STM32F1xx_HAL_Driver/Src/stm32f1xx_hal_dma.c ****   * @brief  DeInitialize the DMA peripheral.
 216:base/chip/Drivers/STM32F1xx_HAL_Driver/Src/stm32f1xx_hal_dma.c ****   * @param  hdma: pointer to a DMA_HandleTypeDef structure that contains
 217:base/chip/Drivers/STM32F1xx_HAL_Driver/Src/stm32f1xx_hal_dma.c ****   *               the configuration information for the specified DMA Channel.
 218:base/chip/Drivers/STM32F1xx_HAL_Driver/Src/stm32f1xx_hal_dma.c ****   * @retval HAL status
 219:base/chip/Drivers/STM32F1xx_HAL_Driver/Src/stm32f1xx_hal_dma.c ****   */
 220:base/chip/Drivers/STM32F1xx_HAL_Driver/Src/stm32f1xx_hal_dma.c **** HAL_StatusTypeDef HAL_DMA_DeInit(DMA_HandleTypeDef *hdma)
 221:base/chip/Drivers/STM32F1xx_HAL_Driver/Src/stm32f1xx_hal_dma.c **** {
 222:base/chip/Drivers/STM32F1xx_HAL_Driver/Src/stm32f1xx_hal_dma.c ****   /* Check the DMA handle allocation */
 223:base/chip/Drivers/STM32F1xx_HAL_Driver/Src/stm32f1xx_hal_dma.c ****   if(hdma == NULL)
 224:base/chip/Drivers/STM32F1xx_HAL_Driver/Src/stm32f1xx_hal_dma.c ****   {
 225:base/chip/Drivers/STM32F1xx_HAL_Driver/Src/stm32f1xx_hal_dma.c ****     return HAL_ERROR;
 226:base/chip/Drivers/STM32F1xx_HAL_Driver/Src/stm32f1xx_hal_dma.c ****   }
 227:base/chip/Drivers/STM32F1xx_HAL_Driver/Src/stm32f1xx_hal_dma.c **** 
 228:base/chip/Drivers/STM32F1xx_HAL_Driver/Src/stm32f1xx_hal_dma.c ****   /* Check the parameters */
 229:base/chip/Drivers/STM32F1xx_HAL_Driver/Src/stm32f1xx_hal_dma.c ****   assert_param(IS_DMA_ALL_INSTANCE(hdma->Instance));
 230:base/chip/Drivers/STM32F1xx_HAL_Driver/Src/stm32f1xx_hal_dma.c **** 
 231:base/chip/Drivers/STM32F1xx_HAL_Driver/Src/stm32f1xx_hal_dma.c ****   /* Disable the selected DMA Channelx */
 232:base/chip/Drivers/STM32F1xx_HAL_Driver/Src/stm32f1xx_hal_dma.c ****   __HAL_DMA_DISABLE(hdma);
 233:base/chip/Drivers/STM32F1xx_HAL_Driver/Src/stm32f1xx_hal_dma.c **** 
 234:base/chip/Drivers/STM32F1xx_HAL_Driver/Src/stm32f1xx_hal_dma.c ****   /* Reset DMA Channel control register */
 235:base/chip/Drivers/STM32F1xx_HAL_Driver/Src/stm32f1xx_hal_dma.c ****   hdma->Instance->CCR  = 0U;
 236:base/chip/Drivers/STM32F1xx_HAL_Driver/Src/stm32f1xx_hal_dma.c **** 
 237:base/chip/Drivers/STM32F1xx_HAL_Driver/Src/stm32f1xx_hal_dma.c ****   /* Reset DMA Channel Number of Data to Transfer register */
 238:base/chip/Drivers/STM32F1xx_HAL_Driver/Src/stm32f1xx_hal_dma.c ****   hdma->Instance->CNDTR = 0U;
 239:base/chip/Drivers/STM32F1xx_HAL_Driver/Src/stm32f1xx_hal_dma.c **** 
 240:base/chip/Drivers/STM32F1xx_HAL_Driver/Src/stm32f1xx_hal_dma.c ****   /* Reset DMA Channel peripheral address register */
 241:base/chip/Drivers/STM32F1xx_HAL_Driver/Src/stm32f1xx_hal_dma.c ****   hdma->Instance->CPAR  = 0U;
 242:base/chip/Drivers/STM32F1xx_HAL_Driver/Src/stm32f1xx_hal_dma.c **** 
 243:base/chip/Drivers/STM32F1xx_HAL_Driver/Src/stm32f1xx_hal_dma.c ****   /* Reset DMA Channel memory address register */
 244:base/chip/Drivers/STM32F1xx_HAL_Driver/Src/stm32f1xx_hal_dma.c ****   hdma->Instance->CMAR = 0U;
 245:base/chip/Drivers/STM32F1xx_HAL_Driver/Src/stm32f1xx_hal_dma.c **** 
 246:base/chip/Drivers/STM32F1xx_HAL_Driver/Src/stm32f1xx_hal_dma.c **** #if defined (DMA2)
 247:base/chip/Drivers/STM32F1xx_HAL_Driver/Src/stm32f1xx_hal_dma.c ****   /* calculation of the channel index */
 248:base/chip/Drivers/STM32F1xx_HAL_Driver/Src/stm32f1xx_hal_dma.c ****   if ((uint32_t)(hdma->Instance) < (uint32_t)(DMA2_Channel1))
 249:base/chip/Drivers/STM32F1xx_HAL_Driver/Src/stm32f1xx_hal_dma.c ****   {
 250:base/chip/Drivers/STM32F1xx_HAL_Driver/Src/stm32f1xx_hal_dma.c ****     /* DMA1 */
 251:base/chip/Drivers/STM32F1xx_HAL_Driver/Src/stm32f1xx_hal_dma.c ****     hdma->ChannelIndex = (((uint32_t)hdma->Instance - (uint32_t)DMA1_Channel1) / ((uint32_t)DMA1_Ch
 252:base/chip/Drivers/STM32F1xx_HAL_Driver/Src/stm32f1xx_hal_dma.c ****     hdma->DmaBaseAddress = DMA1;
 253:base/chip/Drivers/STM32F1xx_HAL_Driver/Src/stm32f1xx_hal_dma.c ****   }
 254:base/chip/Drivers/STM32F1xx_HAL_Driver/Src/stm32f1xx_hal_dma.c ****   else
 255:base/chip/Drivers/STM32F1xx_HAL_Driver/Src/stm32f1xx_hal_dma.c ****   {
 256:base/chip/Drivers/STM32F1xx_HAL_Driver/Src/stm32f1xx_hal_dma.c ****     /* DMA2 */
 257:base/chip/Drivers/STM32F1xx_HAL_Driver/Src/stm32f1xx_hal_dma.c ****     hdma->ChannelIndex = (((uint32_t)hdma->Instance - (uint32_t)DMA2_Channel1) / ((uint32_t)DMA2_Ch
 258:base/chip/Drivers/STM32F1xx_HAL_Driver/Src/stm32f1xx_hal_dma.c ****     hdma->DmaBaseAddress = DMA2;
 259:base/chip/Drivers/STM32F1xx_HAL_Driver/Src/stm32f1xx_hal_dma.c ****   }
 260:base/chip/Drivers/STM32F1xx_HAL_Driver/Src/stm32f1xx_hal_dma.c **** #else
ARM GAS  /tmp/ccqu0Abp.s 			page 6


 261:base/chip/Drivers/STM32F1xx_HAL_Driver/Src/stm32f1xx_hal_dma.c ****   /* DMA1 */
 262:base/chip/Drivers/STM32F1xx_HAL_Driver/Src/stm32f1xx_hal_dma.c ****   hdma->ChannelIndex = (((uint32_t)hdma->Instance - (uint32_t)DMA1_Channel1) / ((uint32_t)DMA1_Chan
 263:base/chip/Drivers/STM32F1xx_HAL_Driver/Src/stm32f1xx_hal_dma.c ****   hdma->DmaBaseAddress = DMA1;
 264:base/chip/Drivers/STM32F1xx_HAL_Driver/Src/stm32f1xx_hal_dma.c **** #endif /* DMA2 */
 265:base/chip/Drivers/STM32F1xx_HAL_Driver/Src/stm32f1xx_hal_dma.c **** 
 266:base/chip/Drivers/STM32F1xx_HAL_Driver/Src/stm32f1xx_hal_dma.c ****   /* Clear all flags */
 267:base/chip/Drivers/STM32F1xx_HAL_Driver/Src/stm32f1xx_hal_dma.c ****   hdma->DmaBaseAddress->IFCR = (DMA_ISR_GIF1 << (hdma->ChannelIndex));
 268:base/chip/Drivers/STM32F1xx_HAL_Driver/Src/stm32f1xx_hal_dma.c **** 
 269:base/chip/Drivers/STM32F1xx_HAL_Driver/Src/stm32f1xx_hal_dma.c ****   /* Clean all callbacks */
 270:base/chip/Drivers/STM32F1xx_HAL_Driver/Src/stm32f1xx_hal_dma.c ****   hdma->XferCpltCallback = NULL;
 271:base/chip/Drivers/STM32F1xx_HAL_Driver/Src/stm32f1xx_hal_dma.c ****   hdma->XferHalfCpltCallback = NULL;
 272:base/chip/Drivers/STM32F1xx_HAL_Driver/Src/stm32f1xx_hal_dma.c ****   hdma->XferErrorCallback = NULL;
 273:base/chip/Drivers/STM32F1xx_HAL_Driver/Src/stm32f1xx_hal_dma.c ****   hdma->XferAbortCallback = NULL;
 274:base/chip/Drivers/STM32F1xx_HAL_Driver/Src/stm32f1xx_hal_dma.c **** 
 275:base/chip/Drivers/STM32F1xx_HAL_Driver/Src/stm32f1xx_hal_dma.c ****   /* Reset the error code */
 276:base/chip/Drivers/STM32F1xx_HAL_Driver/Src/stm32f1xx_hal_dma.c ****   hdma->ErrorCode = HAL_DMA_ERROR_NONE;
 277:base/chip/Drivers/STM32F1xx_HAL_Driver/Src/stm32f1xx_hal_dma.c **** 
 278:base/chip/Drivers/STM32F1xx_HAL_Driver/Src/stm32f1xx_hal_dma.c ****   /* Reset the DMA state */
 279:base/chip/Drivers/STM32F1xx_HAL_Driver/Src/stm32f1xx_hal_dma.c ****   hdma->State = HAL_DMA_STATE_RESET;
 280:base/chip/Drivers/STM32F1xx_HAL_Driver/Src/stm32f1xx_hal_dma.c **** 
 281:base/chip/Drivers/STM32F1xx_HAL_Driver/Src/stm32f1xx_hal_dma.c ****   /* Release Lock */
 282:base/chip/Drivers/STM32F1xx_HAL_Driver/Src/stm32f1xx_hal_dma.c ****   __HAL_UNLOCK(hdma);
 283:base/chip/Drivers/STM32F1xx_HAL_Driver/Src/stm32f1xx_hal_dma.c **** 
 284:base/chip/Drivers/STM32F1xx_HAL_Driver/Src/stm32f1xx_hal_dma.c ****   return HAL_OK;
 285:base/chip/Drivers/STM32F1xx_HAL_Driver/Src/stm32f1xx_hal_dma.c **** }
 286:base/chip/Drivers/STM32F1xx_HAL_Driver/Src/stm32f1xx_hal_dma.c **** 
 287:base/chip/Drivers/STM32F1xx_HAL_Driver/Src/stm32f1xx_hal_dma.c **** /**
 288:base/chip/Drivers/STM32F1xx_HAL_Driver/Src/stm32f1xx_hal_dma.c ****   * @}
 289:base/chip/Drivers/STM32F1xx_HAL_Driver/Src/stm32f1xx_hal_dma.c ****   */
 290:base/chip/Drivers/STM32F1xx_HAL_Driver/Src/stm32f1xx_hal_dma.c **** 
 291:base/chip/Drivers/STM32F1xx_HAL_Driver/Src/stm32f1xx_hal_dma.c **** /** @defgroup DMA_Exported_Functions_Group2 Input and Output operation functions
 292:base/chip/Drivers/STM32F1xx_HAL_Driver/Src/stm32f1xx_hal_dma.c ****   *  @brief   Input and Output operation functions
 293:base/chip/Drivers/STM32F1xx_HAL_Driver/Src/stm32f1xx_hal_dma.c ****   *
 294:base/chip/Drivers/STM32F1xx_HAL_Driver/Src/stm32f1xx_hal_dma.c **** @verbatim
 295:base/chip/Drivers/STM32F1xx_HAL_Driver/Src/stm32f1xx_hal_dma.c ****  ===============================================================================
 296:base/chip/Drivers/STM32F1xx_HAL_Driver/Src/stm32f1xx_hal_dma.c ****                       #####  IO operation functions  #####
 297:base/chip/Drivers/STM32F1xx_HAL_Driver/Src/stm32f1xx_hal_dma.c ****  ===============================================================================
 298:base/chip/Drivers/STM32F1xx_HAL_Driver/Src/stm32f1xx_hal_dma.c ****     [..]  This section provides functions allowing to:
 299:base/chip/Drivers/STM32F1xx_HAL_Driver/Src/stm32f1xx_hal_dma.c ****       (+) Configure the source, destination address and data length and Start DMA transfer
 300:base/chip/Drivers/STM32F1xx_HAL_Driver/Src/stm32f1xx_hal_dma.c ****       (+) Configure the source, destination address and data length and
 301:base/chip/Drivers/STM32F1xx_HAL_Driver/Src/stm32f1xx_hal_dma.c ****           Start DMA transfer with interrupt
 302:base/chip/Drivers/STM32F1xx_HAL_Driver/Src/stm32f1xx_hal_dma.c ****       (+) Abort DMA transfer
 303:base/chip/Drivers/STM32F1xx_HAL_Driver/Src/stm32f1xx_hal_dma.c ****       (+) Poll for transfer complete
 304:base/chip/Drivers/STM32F1xx_HAL_Driver/Src/stm32f1xx_hal_dma.c ****       (+) Handle DMA interrupt request
 305:base/chip/Drivers/STM32F1xx_HAL_Driver/Src/stm32f1xx_hal_dma.c **** 
 306:base/chip/Drivers/STM32F1xx_HAL_Driver/Src/stm32f1xx_hal_dma.c **** @endverbatim
 307:base/chip/Drivers/STM32F1xx_HAL_Driver/Src/stm32f1xx_hal_dma.c ****   * @{
 308:base/chip/Drivers/STM32F1xx_HAL_Driver/Src/stm32f1xx_hal_dma.c ****   */
 309:base/chip/Drivers/STM32F1xx_HAL_Driver/Src/stm32f1xx_hal_dma.c **** 
 310:base/chip/Drivers/STM32F1xx_HAL_Driver/Src/stm32f1xx_hal_dma.c **** /**
 311:base/chip/Drivers/STM32F1xx_HAL_Driver/Src/stm32f1xx_hal_dma.c ****   * @brief  Start the DMA Transfer.
 312:base/chip/Drivers/STM32F1xx_HAL_Driver/Src/stm32f1xx_hal_dma.c ****   * @param  hdma: pointer to a DMA_HandleTypeDef structure that contains
 313:base/chip/Drivers/STM32F1xx_HAL_Driver/Src/stm32f1xx_hal_dma.c ****   *               the configuration information for the specified DMA Channel.
 314:base/chip/Drivers/STM32F1xx_HAL_Driver/Src/stm32f1xx_hal_dma.c ****   * @param  SrcAddress: The source memory Buffer address
 315:base/chip/Drivers/STM32F1xx_HAL_Driver/Src/stm32f1xx_hal_dma.c ****   * @param  DstAddress: The destination memory Buffer address
 316:base/chip/Drivers/STM32F1xx_HAL_Driver/Src/stm32f1xx_hal_dma.c ****   * @param  DataLength: The length of data to be transferred from source to destination
 317:base/chip/Drivers/STM32F1xx_HAL_Driver/Src/stm32f1xx_hal_dma.c ****   * @retval HAL status
ARM GAS  /tmp/ccqu0Abp.s 			page 7


 318:base/chip/Drivers/STM32F1xx_HAL_Driver/Src/stm32f1xx_hal_dma.c ****   */
 319:base/chip/Drivers/STM32F1xx_HAL_Driver/Src/stm32f1xx_hal_dma.c **** HAL_StatusTypeDef HAL_DMA_Start(DMA_HandleTypeDef *hdma, uint32_t SrcAddress, uint32_t DstAddress, 
 320:base/chip/Drivers/STM32F1xx_HAL_Driver/Src/stm32f1xx_hal_dma.c **** {
 321:base/chip/Drivers/STM32F1xx_HAL_Driver/Src/stm32f1xx_hal_dma.c ****   HAL_StatusTypeDef status = HAL_OK;
 322:base/chip/Drivers/STM32F1xx_HAL_Driver/Src/stm32f1xx_hal_dma.c **** 
 323:base/chip/Drivers/STM32F1xx_HAL_Driver/Src/stm32f1xx_hal_dma.c ****   /* Check the parameters */
 324:base/chip/Drivers/STM32F1xx_HAL_Driver/Src/stm32f1xx_hal_dma.c ****   assert_param(IS_DMA_BUFFER_SIZE(DataLength));
 325:base/chip/Drivers/STM32F1xx_HAL_Driver/Src/stm32f1xx_hal_dma.c **** 
 326:base/chip/Drivers/STM32F1xx_HAL_Driver/Src/stm32f1xx_hal_dma.c ****   /* Process locked */
 327:base/chip/Drivers/STM32F1xx_HAL_Driver/Src/stm32f1xx_hal_dma.c ****   __HAL_LOCK(hdma);
 328:base/chip/Drivers/STM32F1xx_HAL_Driver/Src/stm32f1xx_hal_dma.c **** 
 329:base/chip/Drivers/STM32F1xx_HAL_Driver/Src/stm32f1xx_hal_dma.c ****   if(HAL_DMA_STATE_READY == hdma->State)
 330:base/chip/Drivers/STM32F1xx_HAL_Driver/Src/stm32f1xx_hal_dma.c ****   {
 331:base/chip/Drivers/STM32F1xx_HAL_Driver/Src/stm32f1xx_hal_dma.c ****     /* Change DMA peripheral state */
 332:base/chip/Drivers/STM32F1xx_HAL_Driver/Src/stm32f1xx_hal_dma.c ****     hdma->State = HAL_DMA_STATE_BUSY;
 333:base/chip/Drivers/STM32F1xx_HAL_Driver/Src/stm32f1xx_hal_dma.c ****     hdma->ErrorCode = HAL_DMA_ERROR_NONE;
 334:base/chip/Drivers/STM32F1xx_HAL_Driver/Src/stm32f1xx_hal_dma.c ****             
 335:base/chip/Drivers/STM32F1xx_HAL_Driver/Src/stm32f1xx_hal_dma.c ****     /* Disable the peripheral */
 336:base/chip/Drivers/STM32F1xx_HAL_Driver/Src/stm32f1xx_hal_dma.c ****     __HAL_DMA_DISABLE(hdma);
 337:base/chip/Drivers/STM32F1xx_HAL_Driver/Src/stm32f1xx_hal_dma.c ****     
 338:base/chip/Drivers/STM32F1xx_HAL_Driver/Src/stm32f1xx_hal_dma.c ****     /* Configure the source, destination address and the data length & clear flags*/
 339:base/chip/Drivers/STM32F1xx_HAL_Driver/Src/stm32f1xx_hal_dma.c ****     DMA_SetConfig(hdma, SrcAddress, DstAddress, DataLength);
 340:base/chip/Drivers/STM32F1xx_HAL_Driver/Src/stm32f1xx_hal_dma.c ****     
 341:base/chip/Drivers/STM32F1xx_HAL_Driver/Src/stm32f1xx_hal_dma.c ****     /* Enable the Peripheral */
 342:base/chip/Drivers/STM32F1xx_HAL_Driver/Src/stm32f1xx_hal_dma.c ****     __HAL_DMA_ENABLE(hdma);
 343:base/chip/Drivers/STM32F1xx_HAL_Driver/Src/stm32f1xx_hal_dma.c ****   }
 344:base/chip/Drivers/STM32F1xx_HAL_Driver/Src/stm32f1xx_hal_dma.c ****   else
 345:base/chip/Drivers/STM32F1xx_HAL_Driver/Src/stm32f1xx_hal_dma.c ****   {
 346:base/chip/Drivers/STM32F1xx_HAL_Driver/Src/stm32f1xx_hal_dma.c ****    /* Process Unlocked */
 347:base/chip/Drivers/STM32F1xx_HAL_Driver/Src/stm32f1xx_hal_dma.c ****    __HAL_UNLOCK(hdma);  
 348:base/chip/Drivers/STM32F1xx_HAL_Driver/Src/stm32f1xx_hal_dma.c ****    status = HAL_BUSY;
 349:base/chip/Drivers/STM32F1xx_HAL_Driver/Src/stm32f1xx_hal_dma.c ****   }  
 350:base/chip/Drivers/STM32F1xx_HAL_Driver/Src/stm32f1xx_hal_dma.c ****   return status;
 351:base/chip/Drivers/STM32F1xx_HAL_Driver/Src/stm32f1xx_hal_dma.c **** }
 352:base/chip/Drivers/STM32F1xx_HAL_Driver/Src/stm32f1xx_hal_dma.c **** 
 353:base/chip/Drivers/STM32F1xx_HAL_Driver/Src/stm32f1xx_hal_dma.c **** /**
 354:base/chip/Drivers/STM32F1xx_HAL_Driver/Src/stm32f1xx_hal_dma.c ****   * @brief  Start the DMA Transfer with interrupt enabled.
 355:base/chip/Drivers/STM32F1xx_HAL_Driver/Src/stm32f1xx_hal_dma.c ****   * @param  hdma: pointer to a DMA_HandleTypeDef structure that contains
 356:base/chip/Drivers/STM32F1xx_HAL_Driver/Src/stm32f1xx_hal_dma.c ****   *               the configuration information for the specified DMA Channel.
 357:base/chip/Drivers/STM32F1xx_HAL_Driver/Src/stm32f1xx_hal_dma.c ****   * @param  SrcAddress: The source memory Buffer address
 358:base/chip/Drivers/STM32F1xx_HAL_Driver/Src/stm32f1xx_hal_dma.c ****   * @param  DstAddress: The destination memory Buffer address
 359:base/chip/Drivers/STM32F1xx_HAL_Driver/Src/stm32f1xx_hal_dma.c ****   * @param  DataLength: The length of data to be transferred from source to destination
 360:base/chip/Drivers/STM32F1xx_HAL_Driver/Src/stm32f1xx_hal_dma.c ****   * @retval HAL status
 361:base/chip/Drivers/STM32F1xx_HAL_Driver/Src/stm32f1xx_hal_dma.c ****   */
 362:base/chip/Drivers/STM32F1xx_HAL_Driver/Src/stm32f1xx_hal_dma.c **** HAL_StatusTypeDef HAL_DMA_Start_IT(DMA_HandleTypeDef *hdma, uint32_t SrcAddress, uint32_t DstAddres
 363:base/chip/Drivers/STM32F1xx_HAL_Driver/Src/stm32f1xx_hal_dma.c **** {
 364:base/chip/Drivers/STM32F1xx_HAL_Driver/Src/stm32f1xx_hal_dma.c ****   HAL_StatusTypeDef status = HAL_OK;
 365:base/chip/Drivers/STM32F1xx_HAL_Driver/Src/stm32f1xx_hal_dma.c **** 
 366:base/chip/Drivers/STM32F1xx_HAL_Driver/Src/stm32f1xx_hal_dma.c ****   /* Check the parameters */
 367:base/chip/Drivers/STM32F1xx_HAL_Driver/Src/stm32f1xx_hal_dma.c ****   assert_param(IS_DMA_BUFFER_SIZE(DataLength));
 368:base/chip/Drivers/STM32F1xx_HAL_Driver/Src/stm32f1xx_hal_dma.c **** 
 369:base/chip/Drivers/STM32F1xx_HAL_Driver/Src/stm32f1xx_hal_dma.c ****   /* Process locked */
 370:base/chip/Drivers/STM32F1xx_HAL_Driver/Src/stm32f1xx_hal_dma.c ****   __HAL_LOCK(hdma);
 371:base/chip/Drivers/STM32F1xx_HAL_Driver/Src/stm32f1xx_hal_dma.c ****   
 372:base/chip/Drivers/STM32F1xx_HAL_Driver/Src/stm32f1xx_hal_dma.c ****   if(HAL_DMA_STATE_READY == hdma->State)
 373:base/chip/Drivers/STM32F1xx_HAL_Driver/Src/stm32f1xx_hal_dma.c ****   {
 374:base/chip/Drivers/STM32F1xx_HAL_Driver/Src/stm32f1xx_hal_dma.c ****     /* Change DMA peripheral state */
ARM GAS  /tmp/ccqu0Abp.s 			page 8


 375:base/chip/Drivers/STM32F1xx_HAL_Driver/Src/stm32f1xx_hal_dma.c ****     hdma->State = HAL_DMA_STATE_BUSY;
 376:base/chip/Drivers/STM32F1xx_HAL_Driver/Src/stm32f1xx_hal_dma.c ****     hdma->ErrorCode = HAL_DMA_ERROR_NONE;
 377:base/chip/Drivers/STM32F1xx_HAL_Driver/Src/stm32f1xx_hal_dma.c ****     
 378:base/chip/Drivers/STM32F1xx_HAL_Driver/Src/stm32f1xx_hal_dma.c ****     /* Disable the peripheral */
 379:base/chip/Drivers/STM32F1xx_HAL_Driver/Src/stm32f1xx_hal_dma.c ****     __HAL_DMA_DISABLE(hdma);
 380:base/chip/Drivers/STM32F1xx_HAL_Driver/Src/stm32f1xx_hal_dma.c ****     
 381:base/chip/Drivers/STM32F1xx_HAL_Driver/Src/stm32f1xx_hal_dma.c ****     /* Configure the source, destination address and the data length & clear flags*/
 382:base/chip/Drivers/STM32F1xx_HAL_Driver/Src/stm32f1xx_hal_dma.c ****     DMA_SetConfig(hdma, SrcAddress, DstAddress, DataLength);
 383:base/chip/Drivers/STM32F1xx_HAL_Driver/Src/stm32f1xx_hal_dma.c ****     
 384:base/chip/Drivers/STM32F1xx_HAL_Driver/Src/stm32f1xx_hal_dma.c ****     /* Enable the transfer complete interrupt */
 385:base/chip/Drivers/STM32F1xx_HAL_Driver/Src/stm32f1xx_hal_dma.c ****     /* Enable the transfer Error interrupt */
 386:base/chip/Drivers/STM32F1xx_HAL_Driver/Src/stm32f1xx_hal_dma.c ****     if(NULL != hdma->XferHalfCpltCallback)
 387:base/chip/Drivers/STM32F1xx_HAL_Driver/Src/stm32f1xx_hal_dma.c ****     {
 388:base/chip/Drivers/STM32F1xx_HAL_Driver/Src/stm32f1xx_hal_dma.c ****       /* Enable the Half transfer complete interrupt as well */
 389:base/chip/Drivers/STM32F1xx_HAL_Driver/Src/stm32f1xx_hal_dma.c ****       __HAL_DMA_ENABLE_IT(hdma, (DMA_IT_TC | DMA_IT_HT | DMA_IT_TE));
 390:base/chip/Drivers/STM32F1xx_HAL_Driver/Src/stm32f1xx_hal_dma.c ****     }
 391:base/chip/Drivers/STM32F1xx_HAL_Driver/Src/stm32f1xx_hal_dma.c ****     else
 392:base/chip/Drivers/STM32F1xx_HAL_Driver/Src/stm32f1xx_hal_dma.c ****     {
 393:base/chip/Drivers/STM32F1xx_HAL_Driver/Src/stm32f1xx_hal_dma.c ****       __HAL_DMA_DISABLE_IT(hdma, DMA_IT_HT);
 394:base/chip/Drivers/STM32F1xx_HAL_Driver/Src/stm32f1xx_hal_dma.c ****       __HAL_DMA_ENABLE_IT(hdma, (DMA_IT_TC | DMA_IT_TE));
 395:base/chip/Drivers/STM32F1xx_HAL_Driver/Src/stm32f1xx_hal_dma.c ****     }
 396:base/chip/Drivers/STM32F1xx_HAL_Driver/Src/stm32f1xx_hal_dma.c ****     /* Enable the Peripheral */
 397:base/chip/Drivers/STM32F1xx_HAL_Driver/Src/stm32f1xx_hal_dma.c ****     __HAL_DMA_ENABLE(hdma);
 398:base/chip/Drivers/STM32F1xx_HAL_Driver/Src/stm32f1xx_hal_dma.c ****   }
 399:base/chip/Drivers/STM32F1xx_HAL_Driver/Src/stm32f1xx_hal_dma.c ****   else
 400:base/chip/Drivers/STM32F1xx_HAL_Driver/Src/stm32f1xx_hal_dma.c ****   {      
 401:base/chip/Drivers/STM32F1xx_HAL_Driver/Src/stm32f1xx_hal_dma.c ****     /* Process Unlocked */
 402:base/chip/Drivers/STM32F1xx_HAL_Driver/Src/stm32f1xx_hal_dma.c ****     __HAL_UNLOCK(hdma); 
 403:base/chip/Drivers/STM32F1xx_HAL_Driver/Src/stm32f1xx_hal_dma.c **** 
 404:base/chip/Drivers/STM32F1xx_HAL_Driver/Src/stm32f1xx_hal_dma.c ****     /* Remain BUSY */
 405:base/chip/Drivers/STM32F1xx_HAL_Driver/Src/stm32f1xx_hal_dma.c ****     status = HAL_BUSY;
 406:base/chip/Drivers/STM32F1xx_HAL_Driver/Src/stm32f1xx_hal_dma.c ****   }    
 407:base/chip/Drivers/STM32F1xx_HAL_Driver/Src/stm32f1xx_hal_dma.c ****   return status;
 408:base/chip/Drivers/STM32F1xx_HAL_Driver/Src/stm32f1xx_hal_dma.c **** }
 409:base/chip/Drivers/STM32F1xx_HAL_Driver/Src/stm32f1xx_hal_dma.c **** 
 410:base/chip/Drivers/STM32F1xx_HAL_Driver/Src/stm32f1xx_hal_dma.c **** /**
 411:base/chip/Drivers/STM32F1xx_HAL_Driver/Src/stm32f1xx_hal_dma.c ****   * @brief  Abort the DMA Transfer.
 412:base/chip/Drivers/STM32F1xx_HAL_Driver/Src/stm32f1xx_hal_dma.c ****   * @param  hdma: pointer to a DMA_HandleTypeDef structure that contains
 413:base/chip/Drivers/STM32F1xx_HAL_Driver/Src/stm32f1xx_hal_dma.c ****   *               the configuration information for the specified DMA Channel.
 414:base/chip/Drivers/STM32F1xx_HAL_Driver/Src/stm32f1xx_hal_dma.c ****   * @retval HAL status
 415:base/chip/Drivers/STM32F1xx_HAL_Driver/Src/stm32f1xx_hal_dma.c ****   */
 416:base/chip/Drivers/STM32F1xx_HAL_Driver/Src/stm32f1xx_hal_dma.c **** HAL_StatusTypeDef HAL_DMA_Abort(DMA_HandleTypeDef *hdma)
 417:base/chip/Drivers/STM32F1xx_HAL_Driver/Src/stm32f1xx_hal_dma.c **** {
 418:base/chip/Drivers/STM32F1xx_HAL_Driver/Src/stm32f1xx_hal_dma.c ****   HAL_StatusTypeDef status = HAL_OK;
 419:base/chip/Drivers/STM32F1xx_HAL_Driver/Src/stm32f1xx_hal_dma.c ****   
 420:base/chip/Drivers/STM32F1xx_HAL_Driver/Src/stm32f1xx_hal_dma.c ****   if(hdma->State != HAL_DMA_STATE_BUSY)
 421:base/chip/Drivers/STM32F1xx_HAL_Driver/Src/stm32f1xx_hal_dma.c ****   {
 422:base/chip/Drivers/STM32F1xx_HAL_Driver/Src/stm32f1xx_hal_dma.c ****     /* no transfer ongoing */
 423:base/chip/Drivers/STM32F1xx_HAL_Driver/Src/stm32f1xx_hal_dma.c ****     hdma->ErrorCode = HAL_DMA_ERROR_NO_XFER;
 424:base/chip/Drivers/STM32F1xx_HAL_Driver/Src/stm32f1xx_hal_dma.c ****     
 425:base/chip/Drivers/STM32F1xx_HAL_Driver/Src/stm32f1xx_hal_dma.c ****     /* Process Unlocked */
 426:base/chip/Drivers/STM32F1xx_HAL_Driver/Src/stm32f1xx_hal_dma.c ****     __HAL_UNLOCK(hdma);
 427:base/chip/Drivers/STM32F1xx_HAL_Driver/Src/stm32f1xx_hal_dma.c ****     
 428:base/chip/Drivers/STM32F1xx_HAL_Driver/Src/stm32f1xx_hal_dma.c ****     return HAL_ERROR;
 429:base/chip/Drivers/STM32F1xx_HAL_Driver/Src/stm32f1xx_hal_dma.c ****   }
 430:base/chip/Drivers/STM32F1xx_HAL_Driver/Src/stm32f1xx_hal_dma.c ****   else
 431:base/chip/Drivers/STM32F1xx_HAL_Driver/Src/stm32f1xx_hal_dma.c **** 
ARM GAS  /tmp/ccqu0Abp.s 			page 9


 432:base/chip/Drivers/STM32F1xx_HAL_Driver/Src/stm32f1xx_hal_dma.c ****   {
 433:base/chip/Drivers/STM32F1xx_HAL_Driver/Src/stm32f1xx_hal_dma.c ****     /* Disable DMA IT */
 434:base/chip/Drivers/STM32F1xx_HAL_Driver/Src/stm32f1xx_hal_dma.c ****     __HAL_DMA_DISABLE_IT(hdma, (DMA_IT_TC | DMA_IT_HT | DMA_IT_TE));
 435:base/chip/Drivers/STM32F1xx_HAL_Driver/Src/stm32f1xx_hal_dma.c ****       
 436:base/chip/Drivers/STM32F1xx_HAL_Driver/Src/stm32f1xx_hal_dma.c ****     /* Disable the channel */
 437:base/chip/Drivers/STM32F1xx_HAL_Driver/Src/stm32f1xx_hal_dma.c ****     __HAL_DMA_DISABLE(hdma);
 438:base/chip/Drivers/STM32F1xx_HAL_Driver/Src/stm32f1xx_hal_dma.c ****       
 439:base/chip/Drivers/STM32F1xx_HAL_Driver/Src/stm32f1xx_hal_dma.c ****     /* Clear all flags */
 440:base/chip/Drivers/STM32F1xx_HAL_Driver/Src/stm32f1xx_hal_dma.c ****     hdma->DmaBaseAddress->IFCR = (DMA_ISR_GIF1 << hdma->ChannelIndex);
 441:base/chip/Drivers/STM32F1xx_HAL_Driver/Src/stm32f1xx_hal_dma.c ****   }
 442:base/chip/Drivers/STM32F1xx_HAL_Driver/Src/stm32f1xx_hal_dma.c ****   /* Change the DMA state */
 443:base/chip/Drivers/STM32F1xx_HAL_Driver/Src/stm32f1xx_hal_dma.c ****   hdma->State = HAL_DMA_STATE_READY;
 444:base/chip/Drivers/STM32F1xx_HAL_Driver/Src/stm32f1xx_hal_dma.c **** 
 445:base/chip/Drivers/STM32F1xx_HAL_Driver/Src/stm32f1xx_hal_dma.c ****   /* Process Unlocked */
 446:base/chip/Drivers/STM32F1xx_HAL_Driver/Src/stm32f1xx_hal_dma.c ****   __HAL_UNLOCK(hdma);      
 447:base/chip/Drivers/STM32F1xx_HAL_Driver/Src/stm32f1xx_hal_dma.c ****   
 448:base/chip/Drivers/STM32F1xx_HAL_Driver/Src/stm32f1xx_hal_dma.c ****   return status; 
 449:base/chip/Drivers/STM32F1xx_HAL_Driver/Src/stm32f1xx_hal_dma.c **** }
 450:base/chip/Drivers/STM32F1xx_HAL_Driver/Src/stm32f1xx_hal_dma.c **** 
 451:base/chip/Drivers/STM32F1xx_HAL_Driver/Src/stm32f1xx_hal_dma.c **** /**
 452:base/chip/Drivers/STM32F1xx_HAL_Driver/Src/stm32f1xx_hal_dma.c ****   * @brief  Aborts the DMA Transfer in Interrupt mode.
 453:base/chip/Drivers/STM32F1xx_HAL_Driver/Src/stm32f1xx_hal_dma.c ****   * @param  hdma  : pointer to a DMA_HandleTypeDef structure that contains
 454:base/chip/Drivers/STM32F1xx_HAL_Driver/Src/stm32f1xx_hal_dma.c ****   *                 the configuration information for the specified DMA Channel.
 455:base/chip/Drivers/STM32F1xx_HAL_Driver/Src/stm32f1xx_hal_dma.c ****   * @retval HAL status
 456:base/chip/Drivers/STM32F1xx_HAL_Driver/Src/stm32f1xx_hal_dma.c ****   */
 457:base/chip/Drivers/STM32F1xx_HAL_Driver/Src/stm32f1xx_hal_dma.c **** HAL_StatusTypeDef HAL_DMA_Abort_IT(DMA_HandleTypeDef *hdma)
 458:base/chip/Drivers/STM32F1xx_HAL_Driver/Src/stm32f1xx_hal_dma.c **** {  
 459:base/chip/Drivers/STM32F1xx_HAL_Driver/Src/stm32f1xx_hal_dma.c ****   HAL_StatusTypeDef status = HAL_OK;
 460:base/chip/Drivers/STM32F1xx_HAL_Driver/Src/stm32f1xx_hal_dma.c ****   
 461:base/chip/Drivers/STM32F1xx_HAL_Driver/Src/stm32f1xx_hal_dma.c ****   if(HAL_DMA_STATE_BUSY != hdma->State)
 462:base/chip/Drivers/STM32F1xx_HAL_Driver/Src/stm32f1xx_hal_dma.c ****   {
 463:base/chip/Drivers/STM32F1xx_HAL_Driver/Src/stm32f1xx_hal_dma.c ****     /* no transfer ongoing */
 464:base/chip/Drivers/STM32F1xx_HAL_Driver/Src/stm32f1xx_hal_dma.c ****     hdma->ErrorCode = HAL_DMA_ERROR_NO_XFER;
 465:base/chip/Drivers/STM32F1xx_HAL_Driver/Src/stm32f1xx_hal_dma.c ****         
 466:base/chip/Drivers/STM32F1xx_HAL_Driver/Src/stm32f1xx_hal_dma.c ****     status = HAL_ERROR;
 467:base/chip/Drivers/STM32F1xx_HAL_Driver/Src/stm32f1xx_hal_dma.c ****   }
 468:base/chip/Drivers/STM32F1xx_HAL_Driver/Src/stm32f1xx_hal_dma.c ****   else
 469:base/chip/Drivers/STM32F1xx_HAL_Driver/Src/stm32f1xx_hal_dma.c ****   { 
 470:base/chip/Drivers/STM32F1xx_HAL_Driver/Src/stm32f1xx_hal_dma.c ****     /* Disable DMA IT */
 471:base/chip/Drivers/STM32F1xx_HAL_Driver/Src/stm32f1xx_hal_dma.c ****     __HAL_DMA_DISABLE_IT(hdma, (DMA_IT_TC | DMA_IT_HT | DMA_IT_TE));
 472:base/chip/Drivers/STM32F1xx_HAL_Driver/Src/stm32f1xx_hal_dma.c **** 
 473:base/chip/Drivers/STM32F1xx_HAL_Driver/Src/stm32f1xx_hal_dma.c ****     /* Disable the channel */
 474:base/chip/Drivers/STM32F1xx_HAL_Driver/Src/stm32f1xx_hal_dma.c ****     __HAL_DMA_DISABLE(hdma);
 475:base/chip/Drivers/STM32F1xx_HAL_Driver/Src/stm32f1xx_hal_dma.c **** 
 476:base/chip/Drivers/STM32F1xx_HAL_Driver/Src/stm32f1xx_hal_dma.c ****     /* Clear all flags */
 477:base/chip/Drivers/STM32F1xx_HAL_Driver/Src/stm32f1xx_hal_dma.c ****     __HAL_DMA_CLEAR_FLAG(hdma, __HAL_DMA_GET_GI_FLAG_INDEX(hdma));
 478:base/chip/Drivers/STM32F1xx_HAL_Driver/Src/stm32f1xx_hal_dma.c **** 
 479:base/chip/Drivers/STM32F1xx_HAL_Driver/Src/stm32f1xx_hal_dma.c ****     /* Change the DMA state */
 480:base/chip/Drivers/STM32F1xx_HAL_Driver/Src/stm32f1xx_hal_dma.c ****     hdma->State = HAL_DMA_STATE_READY;
 481:base/chip/Drivers/STM32F1xx_HAL_Driver/Src/stm32f1xx_hal_dma.c **** 
 482:base/chip/Drivers/STM32F1xx_HAL_Driver/Src/stm32f1xx_hal_dma.c ****     /* Process Unlocked */
 483:base/chip/Drivers/STM32F1xx_HAL_Driver/Src/stm32f1xx_hal_dma.c ****     __HAL_UNLOCK(hdma);
 484:base/chip/Drivers/STM32F1xx_HAL_Driver/Src/stm32f1xx_hal_dma.c **** 
 485:base/chip/Drivers/STM32F1xx_HAL_Driver/Src/stm32f1xx_hal_dma.c ****     /* Call User Abort callback */
 486:base/chip/Drivers/STM32F1xx_HAL_Driver/Src/stm32f1xx_hal_dma.c ****     if(hdma->XferAbortCallback != NULL)
 487:base/chip/Drivers/STM32F1xx_HAL_Driver/Src/stm32f1xx_hal_dma.c ****     {
 488:base/chip/Drivers/STM32F1xx_HAL_Driver/Src/stm32f1xx_hal_dma.c ****       hdma->XferAbortCallback(hdma);
ARM GAS  /tmp/ccqu0Abp.s 			page 10


 489:base/chip/Drivers/STM32F1xx_HAL_Driver/Src/stm32f1xx_hal_dma.c ****     } 
 490:base/chip/Drivers/STM32F1xx_HAL_Driver/Src/stm32f1xx_hal_dma.c ****   }
 491:base/chip/Drivers/STM32F1xx_HAL_Driver/Src/stm32f1xx_hal_dma.c ****   return status;
 492:base/chip/Drivers/STM32F1xx_HAL_Driver/Src/stm32f1xx_hal_dma.c **** }
 493:base/chip/Drivers/STM32F1xx_HAL_Driver/Src/stm32f1xx_hal_dma.c **** 
 494:base/chip/Drivers/STM32F1xx_HAL_Driver/Src/stm32f1xx_hal_dma.c **** /**
 495:base/chip/Drivers/STM32F1xx_HAL_Driver/Src/stm32f1xx_hal_dma.c ****   * @brief  Polling for transfer complete.
 496:base/chip/Drivers/STM32F1xx_HAL_Driver/Src/stm32f1xx_hal_dma.c ****   * @param  hdma:    pointer to a DMA_HandleTypeDef structure that contains
 497:base/chip/Drivers/STM32F1xx_HAL_Driver/Src/stm32f1xx_hal_dma.c ****   *                  the configuration information for the specified DMA Channel.
 498:base/chip/Drivers/STM32F1xx_HAL_Driver/Src/stm32f1xx_hal_dma.c ****   * @param  CompleteLevel: Specifies the DMA level complete.
 499:base/chip/Drivers/STM32F1xx_HAL_Driver/Src/stm32f1xx_hal_dma.c ****   * @param  Timeout:       Timeout duration.
 500:base/chip/Drivers/STM32F1xx_HAL_Driver/Src/stm32f1xx_hal_dma.c ****   * @retval HAL status
 501:base/chip/Drivers/STM32F1xx_HAL_Driver/Src/stm32f1xx_hal_dma.c ****   */
 502:base/chip/Drivers/STM32F1xx_HAL_Driver/Src/stm32f1xx_hal_dma.c **** HAL_StatusTypeDef HAL_DMA_PollForTransfer(DMA_HandleTypeDef *hdma, uint32_t CompleteLevel, uint32_t
 503:base/chip/Drivers/STM32F1xx_HAL_Driver/Src/stm32f1xx_hal_dma.c **** {
 504:base/chip/Drivers/STM32F1xx_HAL_Driver/Src/stm32f1xx_hal_dma.c ****   uint32_t temp;
 505:base/chip/Drivers/STM32F1xx_HAL_Driver/Src/stm32f1xx_hal_dma.c ****   uint32_t tickstart = 0U;
 506:base/chip/Drivers/STM32F1xx_HAL_Driver/Src/stm32f1xx_hal_dma.c **** 
 507:base/chip/Drivers/STM32F1xx_HAL_Driver/Src/stm32f1xx_hal_dma.c ****   if(HAL_DMA_STATE_BUSY != hdma->State)
 508:base/chip/Drivers/STM32F1xx_HAL_Driver/Src/stm32f1xx_hal_dma.c ****   {
 509:base/chip/Drivers/STM32F1xx_HAL_Driver/Src/stm32f1xx_hal_dma.c ****     /* no transfer ongoing */
 510:base/chip/Drivers/STM32F1xx_HAL_Driver/Src/stm32f1xx_hal_dma.c ****     hdma->ErrorCode = HAL_DMA_ERROR_NO_XFER;
 511:base/chip/Drivers/STM32F1xx_HAL_Driver/Src/stm32f1xx_hal_dma.c ****     __HAL_UNLOCK(hdma);
 512:base/chip/Drivers/STM32F1xx_HAL_Driver/Src/stm32f1xx_hal_dma.c ****     return HAL_ERROR;
 513:base/chip/Drivers/STM32F1xx_HAL_Driver/Src/stm32f1xx_hal_dma.c ****   }
 514:base/chip/Drivers/STM32F1xx_HAL_Driver/Src/stm32f1xx_hal_dma.c **** 
 515:base/chip/Drivers/STM32F1xx_HAL_Driver/Src/stm32f1xx_hal_dma.c ****   /* Polling mode not supported in circular mode */
 516:base/chip/Drivers/STM32F1xx_HAL_Driver/Src/stm32f1xx_hal_dma.c ****   if (RESET != (hdma->Instance->CCR & DMA_CCR_CIRC))
 517:base/chip/Drivers/STM32F1xx_HAL_Driver/Src/stm32f1xx_hal_dma.c ****   {
 518:base/chip/Drivers/STM32F1xx_HAL_Driver/Src/stm32f1xx_hal_dma.c ****     hdma->ErrorCode = HAL_DMA_ERROR_NOT_SUPPORTED;
 519:base/chip/Drivers/STM32F1xx_HAL_Driver/Src/stm32f1xx_hal_dma.c ****     return HAL_ERROR;
 520:base/chip/Drivers/STM32F1xx_HAL_Driver/Src/stm32f1xx_hal_dma.c ****   }
 521:base/chip/Drivers/STM32F1xx_HAL_Driver/Src/stm32f1xx_hal_dma.c ****   
 522:base/chip/Drivers/STM32F1xx_HAL_Driver/Src/stm32f1xx_hal_dma.c ****   /* Get the level transfer complete flag */
 523:base/chip/Drivers/STM32F1xx_HAL_Driver/Src/stm32f1xx_hal_dma.c ****   if(CompleteLevel == HAL_DMA_FULL_TRANSFER)
 524:base/chip/Drivers/STM32F1xx_HAL_Driver/Src/stm32f1xx_hal_dma.c ****   {
 525:base/chip/Drivers/STM32F1xx_HAL_Driver/Src/stm32f1xx_hal_dma.c ****     /* Transfer Complete flag */
 526:base/chip/Drivers/STM32F1xx_HAL_Driver/Src/stm32f1xx_hal_dma.c ****     temp = __HAL_DMA_GET_TC_FLAG_INDEX(hdma);
 527:base/chip/Drivers/STM32F1xx_HAL_Driver/Src/stm32f1xx_hal_dma.c ****   }
 528:base/chip/Drivers/STM32F1xx_HAL_Driver/Src/stm32f1xx_hal_dma.c ****   else
 529:base/chip/Drivers/STM32F1xx_HAL_Driver/Src/stm32f1xx_hal_dma.c ****   {
 530:base/chip/Drivers/STM32F1xx_HAL_Driver/Src/stm32f1xx_hal_dma.c ****     /* Half Transfer Complete flag */
 531:base/chip/Drivers/STM32F1xx_HAL_Driver/Src/stm32f1xx_hal_dma.c ****     temp = __HAL_DMA_GET_HT_FLAG_INDEX(hdma);
 532:base/chip/Drivers/STM32F1xx_HAL_Driver/Src/stm32f1xx_hal_dma.c ****   }
 533:base/chip/Drivers/STM32F1xx_HAL_Driver/Src/stm32f1xx_hal_dma.c **** 
 534:base/chip/Drivers/STM32F1xx_HAL_Driver/Src/stm32f1xx_hal_dma.c ****   /* Get tick */
 535:base/chip/Drivers/STM32F1xx_HAL_Driver/Src/stm32f1xx_hal_dma.c ****   tickstart = HAL_GetTick();
 536:base/chip/Drivers/STM32F1xx_HAL_Driver/Src/stm32f1xx_hal_dma.c **** 
 537:base/chip/Drivers/STM32F1xx_HAL_Driver/Src/stm32f1xx_hal_dma.c ****   while(__HAL_DMA_GET_FLAG(hdma, temp) == RESET)
 538:base/chip/Drivers/STM32F1xx_HAL_Driver/Src/stm32f1xx_hal_dma.c ****   {
 539:base/chip/Drivers/STM32F1xx_HAL_Driver/Src/stm32f1xx_hal_dma.c ****     if((__HAL_DMA_GET_FLAG(hdma, __HAL_DMA_GET_TE_FLAG_INDEX(hdma)) != RESET))
 540:base/chip/Drivers/STM32F1xx_HAL_Driver/Src/stm32f1xx_hal_dma.c ****     {
 541:base/chip/Drivers/STM32F1xx_HAL_Driver/Src/stm32f1xx_hal_dma.c ****       /* When a DMA transfer error occurs */
 542:base/chip/Drivers/STM32F1xx_HAL_Driver/Src/stm32f1xx_hal_dma.c ****       /* A hardware clear of its EN bits is performed */
 543:base/chip/Drivers/STM32F1xx_HAL_Driver/Src/stm32f1xx_hal_dma.c ****       /* Clear all flags */
 544:base/chip/Drivers/STM32F1xx_HAL_Driver/Src/stm32f1xx_hal_dma.c ****       hdma->DmaBaseAddress->IFCR = (DMA_ISR_GIF1 << hdma->ChannelIndex);
 545:base/chip/Drivers/STM32F1xx_HAL_Driver/Src/stm32f1xx_hal_dma.c **** 
ARM GAS  /tmp/ccqu0Abp.s 			page 11


 546:base/chip/Drivers/STM32F1xx_HAL_Driver/Src/stm32f1xx_hal_dma.c ****       /* Update error code */
 547:base/chip/Drivers/STM32F1xx_HAL_Driver/Src/stm32f1xx_hal_dma.c ****       SET_BIT(hdma->ErrorCode, HAL_DMA_ERROR_TE);
 548:base/chip/Drivers/STM32F1xx_HAL_Driver/Src/stm32f1xx_hal_dma.c **** 
 549:base/chip/Drivers/STM32F1xx_HAL_Driver/Src/stm32f1xx_hal_dma.c ****       /* Change the DMA state */
 550:base/chip/Drivers/STM32F1xx_HAL_Driver/Src/stm32f1xx_hal_dma.c ****       hdma->State= HAL_DMA_STATE_READY;
 551:base/chip/Drivers/STM32F1xx_HAL_Driver/Src/stm32f1xx_hal_dma.c **** 
 552:base/chip/Drivers/STM32F1xx_HAL_Driver/Src/stm32f1xx_hal_dma.c ****       /* Process Unlocked */
 553:base/chip/Drivers/STM32F1xx_HAL_Driver/Src/stm32f1xx_hal_dma.c ****       __HAL_UNLOCK(hdma);
 554:base/chip/Drivers/STM32F1xx_HAL_Driver/Src/stm32f1xx_hal_dma.c **** 
 555:base/chip/Drivers/STM32F1xx_HAL_Driver/Src/stm32f1xx_hal_dma.c ****       return HAL_ERROR;
 556:base/chip/Drivers/STM32F1xx_HAL_Driver/Src/stm32f1xx_hal_dma.c ****     }
 557:base/chip/Drivers/STM32F1xx_HAL_Driver/Src/stm32f1xx_hal_dma.c ****     /* Check for the Timeout */
 558:base/chip/Drivers/STM32F1xx_HAL_Driver/Src/stm32f1xx_hal_dma.c ****     if(Timeout != HAL_MAX_DELAY)
 559:base/chip/Drivers/STM32F1xx_HAL_Driver/Src/stm32f1xx_hal_dma.c ****     {
 560:base/chip/Drivers/STM32F1xx_HAL_Driver/Src/stm32f1xx_hal_dma.c ****       if((Timeout == 0U) || ((HAL_GetTick() - tickstart) > Timeout))
 561:base/chip/Drivers/STM32F1xx_HAL_Driver/Src/stm32f1xx_hal_dma.c ****       {
 562:base/chip/Drivers/STM32F1xx_HAL_Driver/Src/stm32f1xx_hal_dma.c ****         /* Update error code */
 563:base/chip/Drivers/STM32F1xx_HAL_Driver/Src/stm32f1xx_hal_dma.c ****         SET_BIT(hdma->ErrorCode, HAL_DMA_ERROR_TIMEOUT);
 564:base/chip/Drivers/STM32F1xx_HAL_Driver/Src/stm32f1xx_hal_dma.c **** 
 565:base/chip/Drivers/STM32F1xx_HAL_Driver/Src/stm32f1xx_hal_dma.c ****         /* Change the DMA state */
 566:base/chip/Drivers/STM32F1xx_HAL_Driver/Src/stm32f1xx_hal_dma.c ****         hdma->State = HAL_DMA_STATE_READY;
 567:base/chip/Drivers/STM32F1xx_HAL_Driver/Src/stm32f1xx_hal_dma.c **** 
 568:base/chip/Drivers/STM32F1xx_HAL_Driver/Src/stm32f1xx_hal_dma.c ****         /* Process Unlocked */
 569:base/chip/Drivers/STM32F1xx_HAL_Driver/Src/stm32f1xx_hal_dma.c ****         __HAL_UNLOCK(hdma);
 570:base/chip/Drivers/STM32F1xx_HAL_Driver/Src/stm32f1xx_hal_dma.c **** 
 571:base/chip/Drivers/STM32F1xx_HAL_Driver/Src/stm32f1xx_hal_dma.c ****         return HAL_ERROR;
 572:base/chip/Drivers/STM32F1xx_HAL_Driver/Src/stm32f1xx_hal_dma.c ****       }
 573:base/chip/Drivers/STM32F1xx_HAL_Driver/Src/stm32f1xx_hal_dma.c ****     }
 574:base/chip/Drivers/STM32F1xx_HAL_Driver/Src/stm32f1xx_hal_dma.c ****   }
 575:base/chip/Drivers/STM32F1xx_HAL_Driver/Src/stm32f1xx_hal_dma.c **** 
 576:base/chip/Drivers/STM32F1xx_HAL_Driver/Src/stm32f1xx_hal_dma.c ****   if(CompleteLevel == HAL_DMA_FULL_TRANSFER)
 577:base/chip/Drivers/STM32F1xx_HAL_Driver/Src/stm32f1xx_hal_dma.c ****   {
 578:base/chip/Drivers/STM32F1xx_HAL_Driver/Src/stm32f1xx_hal_dma.c ****     /* Clear the transfer complete flag */
 579:base/chip/Drivers/STM32F1xx_HAL_Driver/Src/stm32f1xx_hal_dma.c ****     __HAL_DMA_CLEAR_FLAG(hdma, __HAL_DMA_GET_TC_FLAG_INDEX(hdma));
 580:base/chip/Drivers/STM32F1xx_HAL_Driver/Src/stm32f1xx_hal_dma.c **** 
 581:base/chip/Drivers/STM32F1xx_HAL_Driver/Src/stm32f1xx_hal_dma.c ****     /* The selected Channelx EN bit is cleared (DMA is disabled and
 582:base/chip/Drivers/STM32F1xx_HAL_Driver/Src/stm32f1xx_hal_dma.c ****     all transfers are complete) */
 583:base/chip/Drivers/STM32F1xx_HAL_Driver/Src/stm32f1xx_hal_dma.c ****     hdma->State = HAL_DMA_STATE_READY;
 584:base/chip/Drivers/STM32F1xx_HAL_Driver/Src/stm32f1xx_hal_dma.c ****   }
 585:base/chip/Drivers/STM32F1xx_HAL_Driver/Src/stm32f1xx_hal_dma.c ****   else
 586:base/chip/Drivers/STM32F1xx_HAL_Driver/Src/stm32f1xx_hal_dma.c ****   {
 587:base/chip/Drivers/STM32F1xx_HAL_Driver/Src/stm32f1xx_hal_dma.c ****     /* Clear the half transfer complete flag */
 588:base/chip/Drivers/STM32F1xx_HAL_Driver/Src/stm32f1xx_hal_dma.c ****     __HAL_DMA_CLEAR_FLAG(hdma, __HAL_DMA_GET_HT_FLAG_INDEX(hdma));
 589:base/chip/Drivers/STM32F1xx_HAL_Driver/Src/stm32f1xx_hal_dma.c ****   }
 590:base/chip/Drivers/STM32F1xx_HAL_Driver/Src/stm32f1xx_hal_dma.c ****   
 591:base/chip/Drivers/STM32F1xx_HAL_Driver/Src/stm32f1xx_hal_dma.c ****   /* Process unlocked */
 592:base/chip/Drivers/STM32F1xx_HAL_Driver/Src/stm32f1xx_hal_dma.c ****   __HAL_UNLOCK(hdma);
 593:base/chip/Drivers/STM32F1xx_HAL_Driver/Src/stm32f1xx_hal_dma.c **** 
 594:base/chip/Drivers/STM32F1xx_HAL_Driver/Src/stm32f1xx_hal_dma.c ****   return HAL_OK;
 595:base/chip/Drivers/STM32F1xx_HAL_Driver/Src/stm32f1xx_hal_dma.c **** }
 596:base/chip/Drivers/STM32F1xx_HAL_Driver/Src/stm32f1xx_hal_dma.c **** 
 597:base/chip/Drivers/STM32F1xx_HAL_Driver/Src/stm32f1xx_hal_dma.c **** /**
 598:base/chip/Drivers/STM32F1xx_HAL_Driver/Src/stm32f1xx_hal_dma.c ****   * @brief  Handles DMA interrupt request.
 599:base/chip/Drivers/STM32F1xx_HAL_Driver/Src/stm32f1xx_hal_dma.c ****   * @param  hdma: pointer to a DMA_HandleTypeDef structure that contains
 600:base/chip/Drivers/STM32F1xx_HAL_Driver/Src/stm32f1xx_hal_dma.c ****   *               the configuration information for the specified DMA Channel.  
 601:base/chip/Drivers/STM32F1xx_HAL_Driver/Src/stm32f1xx_hal_dma.c ****   * @retval None
 602:base/chip/Drivers/STM32F1xx_HAL_Driver/Src/stm32f1xx_hal_dma.c ****   */
ARM GAS  /tmp/ccqu0Abp.s 			page 12


 603:base/chip/Drivers/STM32F1xx_HAL_Driver/Src/stm32f1xx_hal_dma.c **** void HAL_DMA_IRQHandler(DMA_HandleTypeDef *hdma)
 604:base/chip/Drivers/STM32F1xx_HAL_Driver/Src/stm32f1xx_hal_dma.c **** {
 605:base/chip/Drivers/STM32F1xx_HAL_Driver/Src/stm32f1xx_hal_dma.c ****   uint32_t flag_it = hdma->DmaBaseAddress->ISR;
 606:base/chip/Drivers/STM32F1xx_HAL_Driver/Src/stm32f1xx_hal_dma.c ****   uint32_t source_it = hdma->Instance->CCR;
 607:base/chip/Drivers/STM32F1xx_HAL_Driver/Src/stm32f1xx_hal_dma.c ****   
 608:base/chip/Drivers/STM32F1xx_HAL_Driver/Src/stm32f1xx_hal_dma.c ****   /* Half Transfer Complete Interrupt management ******************************/
 609:base/chip/Drivers/STM32F1xx_HAL_Driver/Src/stm32f1xx_hal_dma.c ****   if (((flag_it & (DMA_FLAG_HT1 << hdma->ChannelIndex)) != RESET) && ((source_it & DMA_IT_HT) != RE
 610:base/chip/Drivers/STM32F1xx_HAL_Driver/Src/stm32f1xx_hal_dma.c ****   {
 611:base/chip/Drivers/STM32F1xx_HAL_Driver/Src/stm32f1xx_hal_dma.c ****     /* Disable the half transfer interrupt if the DMA mode is not CIRCULAR */
 612:base/chip/Drivers/STM32F1xx_HAL_Driver/Src/stm32f1xx_hal_dma.c ****     if((hdma->Instance->CCR & DMA_CCR_CIRC) == 0U)
 613:base/chip/Drivers/STM32F1xx_HAL_Driver/Src/stm32f1xx_hal_dma.c ****     {
 614:base/chip/Drivers/STM32F1xx_HAL_Driver/Src/stm32f1xx_hal_dma.c ****       /* Disable the half transfer interrupt */
 615:base/chip/Drivers/STM32F1xx_HAL_Driver/Src/stm32f1xx_hal_dma.c ****       __HAL_DMA_DISABLE_IT(hdma, DMA_IT_HT);
 616:base/chip/Drivers/STM32F1xx_HAL_Driver/Src/stm32f1xx_hal_dma.c ****     }
 617:base/chip/Drivers/STM32F1xx_HAL_Driver/Src/stm32f1xx_hal_dma.c ****     /* Clear the half transfer complete flag */
 618:base/chip/Drivers/STM32F1xx_HAL_Driver/Src/stm32f1xx_hal_dma.c ****     __HAL_DMA_CLEAR_FLAG(hdma, __HAL_DMA_GET_HT_FLAG_INDEX(hdma));
 619:base/chip/Drivers/STM32F1xx_HAL_Driver/Src/stm32f1xx_hal_dma.c **** 
 620:base/chip/Drivers/STM32F1xx_HAL_Driver/Src/stm32f1xx_hal_dma.c ****     /* DMA peripheral state is not updated in Half Transfer */
 621:base/chip/Drivers/STM32F1xx_HAL_Driver/Src/stm32f1xx_hal_dma.c ****     /* but in Transfer Complete case */
 622:base/chip/Drivers/STM32F1xx_HAL_Driver/Src/stm32f1xx_hal_dma.c **** 
 623:base/chip/Drivers/STM32F1xx_HAL_Driver/Src/stm32f1xx_hal_dma.c ****     if(hdma->XferHalfCpltCallback != NULL)
 624:base/chip/Drivers/STM32F1xx_HAL_Driver/Src/stm32f1xx_hal_dma.c ****     {
 625:base/chip/Drivers/STM32F1xx_HAL_Driver/Src/stm32f1xx_hal_dma.c ****       /* Half transfer callback */
 626:base/chip/Drivers/STM32F1xx_HAL_Driver/Src/stm32f1xx_hal_dma.c ****       hdma->XferHalfCpltCallback(hdma);
 627:base/chip/Drivers/STM32F1xx_HAL_Driver/Src/stm32f1xx_hal_dma.c ****     }
 628:base/chip/Drivers/STM32F1xx_HAL_Driver/Src/stm32f1xx_hal_dma.c ****   }
 629:base/chip/Drivers/STM32F1xx_HAL_Driver/Src/stm32f1xx_hal_dma.c **** 
 630:base/chip/Drivers/STM32F1xx_HAL_Driver/Src/stm32f1xx_hal_dma.c ****   /* Transfer Complete Interrupt management ***********************************/
 631:base/chip/Drivers/STM32F1xx_HAL_Driver/Src/stm32f1xx_hal_dma.c ****   else if (((flag_it & (DMA_FLAG_TC1 << hdma->ChannelIndex)) != RESET) && ((source_it & DMA_IT_TC) 
 632:base/chip/Drivers/STM32F1xx_HAL_Driver/Src/stm32f1xx_hal_dma.c ****   {
 633:base/chip/Drivers/STM32F1xx_HAL_Driver/Src/stm32f1xx_hal_dma.c ****     if((hdma->Instance->CCR & DMA_CCR_CIRC) == 0U)
 634:base/chip/Drivers/STM32F1xx_HAL_Driver/Src/stm32f1xx_hal_dma.c ****     {
 635:base/chip/Drivers/STM32F1xx_HAL_Driver/Src/stm32f1xx_hal_dma.c ****       /* Disable the transfer complete and error interrupt */
 636:base/chip/Drivers/STM32F1xx_HAL_Driver/Src/stm32f1xx_hal_dma.c ****       __HAL_DMA_DISABLE_IT(hdma, DMA_IT_TE | DMA_IT_TC);  
 637:base/chip/Drivers/STM32F1xx_HAL_Driver/Src/stm32f1xx_hal_dma.c **** 
 638:base/chip/Drivers/STM32F1xx_HAL_Driver/Src/stm32f1xx_hal_dma.c ****       /* Change the DMA state */
 639:base/chip/Drivers/STM32F1xx_HAL_Driver/Src/stm32f1xx_hal_dma.c ****       hdma->State = HAL_DMA_STATE_READY;
 640:base/chip/Drivers/STM32F1xx_HAL_Driver/Src/stm32f1xx_hal_dma.c ****     }
 641:base/chip/Drivers/STM32F1xx_HAL_Driver/Src/stm32f1xx_hal_dma.c ****     /* Clear the transfer complete flag */
 642:base/chip/Drivers/STM32F1xx_HAL_Driver/Src/stm32f1xx_hal_dma.c ****       __HAL_DMA_CLEAR_FLAG(hdma, __HAL_DMA_GET_TC_FLAG_INDEX(hdma));
 643:base/chip/Drivers/STM32F1xx_HAL_Driver/Src/stm32f1xx_hal_dma.c **** 
 644:base/chip/Drivers/STM32F1xx_HAL_Driver/Src/stm32f1xx_hal_dma.c ****     /* Process Unlocked */
 645:base/chip/Drivers/STM32F1xx_HAL_Driver/Src/stm32f1xx_hal_dma.c ****     __HAL_UNLOCK(hdma);
 646:base/chip/Drivers/STM32F1xx_HAL_Driver/Src/stm32f1xx_hal_dma.c **** 
 647:base/chip/Drivers/STM32F1xx_HAL_Driver/Src/stm32f1xx_hal_dma.c ****     if(hdma->XferCpltCallback != NULL)
 648:base/chip/Drivers/STM32F1xx_HAL_Driver/Src/stm32f1xx_hal_dma.c ****     {
 649:base/chip/Drivers/STM32F1xx_HAL_Driver/Src/stm32f1xx_hal_dma.c ****       /* Transfer complete callback */
 650:base/chip/Drivers/STM32F1xx_HAL_Driver/Src/stm32f1xx_hal_dma.c ****       hdma->XferCpltCallback(hdma);
 651:base/chip/Drivers/STM32F1xx_HAL_Driver/Src/stm32f1xx_hal_dma.c ****     }
 652:base/chip/Drivers/STM32F1xx_HAL_Driver/Src/stm32f1xx_hal_dma.c ****   }
 653:base/chip/Drivers/STM32F1xx_HAL_Driver/Src/stm32f1xx_hal_dma.c **** 
 654:base/chip/Drivers/STM32F1xx_HAL_Driver/Src/stm32f1xx_hal_dma.c ****   /* Transfer Error Interrupt management **************************************/
 655:base/chip/Drivers/STM32F1xx_HAL_Driver/Src/stm32f1xx_hal_dma.c ****   else if (( RESET != (flag_it & (DMA_FLAG_TE1 << hdma->ChannelIndex))) && (RESET != (source_it & D
 656:base/chip/Drivers/STM32F1xx_HAL_Driver/Src/stm32f1xx_hal_dma.c ****   {
 657:base/chip/Drivers/STM32F1xx_HAL_Driver/Src/stm32f1xx_hal_dma.c ****     /* When a DMA transfer error occurs */
 658:base/chip/Drivers/STM32F1xx_HAL_Driver/Src/stm32f1xx_hal_dma.c ****     /* A hardware clear of its EN bits is performed */
 659:base/chip/Drivers/STM32F1xx_HAL_Driver/Src/stm32f1xx_hal_dma.c ****     /* Disable ALL DMA IT */
ARM GAS  /tmp/ccqu0Abp.s 			page 13


 660:base/chip/Drivers/STM32F1xx_HAL_Driver/Src/stm32f1xx_hal_dma.c ****     __HAL_DMA_DISABLE_IT(hdma, (DMA_IT_TC | DMA_IT_HT | DMA_IT_TE));
 661:base/chip/Drivers/STM32F1xx_HAL_Driver/Src/stm32f1xx_hal_dma.c **** 
 662:base/chip/Drivers/STM32F1xx_HAL_Driver/Src/stm32f1xx_hal_dma.c ****     /* Clear all flags */
 663:base/chip/Drivers/STM32F1xx_HAL_Driver/Src/stm32f1xx_hal_dma.c ****     hdma->DmaBaseAddress->IFCR = (DMA_ISR_GIF1 << hdma->ChannelIndex);
 664:base/chip/Drivers/STM32F1xx_HAL_Driver/Src/stm32f1xx_hal_dma.c **** 
 665:base/chip/Drivers/STM32F1xx_HAL_Driver/Src/stm32f1xx_hal_dma.c ****     /* Update error code */
 666:base/chip/Drivers/STM32F1xx_HAL_Driver/Src/stm32f1xx_hal_dma.c ****     hdma->ErrorCode = HAL_DMA_ERROR_TE;
 667:base/chip/Drivers/STM32F1xx_HAL_Driver/Src/stm32f1xx_hal_dma.c **** 
 668:base/chip/Drivers/STM32F1xx_HAL_Driver/Src/stm32f1xx_hal_dma.c ****     /* Change the DMA state */
 669:base/chip/Drivers/STM32F1xx_HAL_Driver/Src/stm32f1xx_hal_dma.c ****     hdma->State = HAL_DMA_STATE_READY;
 670:base/chip/Drivers/STM32F1xx_HAL_Driver/Src/stm32f1xx_hal_dma.c **** 
 671:base/chip/Drivers/STM32F1xx_HAL_Driver/Src/stm32f1xx_hal_dma.c ****     /* Process Unlocked */
 672:base/chip/Drivers/STM32F1xx_HAL_Driver/Src/stm32f1xx_hal_dma.c ****     __HAL_UNLOCK(hdma);
 673:base/chip/Drivers/STM32F1xx_HAL_Driver/Src/stm32f1xx_hal_dma.c **** 
 674:base/chip/Drivers/STM32F1xx_HAL_Driver/Src/stm32f1xx_hal_dma.c ****     if (hdma->XferErrorCallback != NULL)
 675:base/chip/Drivers/STM32F1xx_HAL_Driver/Src/stm32f1xx_hal_dma.c ****     {
 676:base/chip/Drivers/STM32F1xx_HAL_Driver/Src/stm32f1xx_hal_dma.c ****       /* Transfer error callback */
 677:base/chip/Drivers/STM32F1xx_HAL_Driver/Src/stm32f1xx_hal_dma.c ****       hdma->XferErrorCallback(hdma);
 678:base/chip/Drivers/STM32F1xx_HAL_Driver/Src/stm32f1xx_hal_dma.c ****     }
 679:base/chip/Drivers/STM32F1xx_HAL_Driver/Src/stm32f1xx_hal_dma.c ****   }
 680:base/chip/Drivers/STM32F1xx_HAL_Driver/Src/stm32f1xx_hal_dma.c ****   return;
 681:base/chip/Drivers/STM32F1xx_HAL_Driver/Src/stm32f1xx_hal_dma.c **** }
 682:base/chip/Drivers/STM32F1xx_HAL_Driver/Src/stm32f1xx_hal_dma.c **** 
 683:base/chip/Drivers/STM32F1xx_HAL_Driver/Src/stm32f1xx_hal_dma.c **** /**
 684:base/chip/Drivers/STM32F1xx_HAL_Driver/Src/stm32f1xx_hal_dma.c ****   * @brief Register callbacks
 685:base/chip/Drivers/STM32F1xx_HAL_Driver/Src/stm32f1xx_hal_dma.c ****   * @param hdma: pointer to a DMA_HandleTypeDef structure that contains
 686:base/chip/Drivers/STM32F1xx_HAL_Driver/Src/stm32f1xx_hal_dma.c ****   *              the configuration information for the specified DMA Channel.
 687:base/chip/Drivers/STM32F1xx_HAL_Driver/Src/stm32f1xx_hal_dma.c ****   * @param CallbackID: User Callback identifer
 688:base/chip/Drivers/STM32F1xx_HAL_Driver/Src/stm32f1xx_hal_dma.c ****   *                    a HAL_DMA_CallbackIDTypeDef ENUM as parameter.
 689:base/chip/Drivers/STM32F1xx_HAL_Driver/Src/stm32f1xx_hal_dma.c ****   * @param pCallback: pointer to private callbacsk function which has pointer to 
 690:base/chip/Drivers/STM32F1xx_HAL_Driver/Src/stm32f1xx_hal_dma.c ****   *                   a DMA_HandleTypeDef structure as parameter.
 691:base/chip/Drivers/STM32F1xx_HAL_Driver/Src/stm32f1xx_hal_dma.c ****   * @retval HAL status
 692:base/chip/Drivers/STM32F1xx_HAL_Driver/Src/stm32f1xx_hal_dma.c ****   */                          
 693:base/chip/Drivers/STM32F1xx_HAL_Driver/Src/stm32f1xx_hal_dma.c **** HAL_StatusTypeDef HAL_DMA_RegisterCallback(DMA_HandleTypeDef *hdma, HAL_DMA_CallbackIDTypeDef Callb
 694:base/chip/Drivers/STM32F1xx_HAL_Driver/Src/stm32f1xx_hal_dma.c **** {
 695:base/chip/Drivers/STM32F1xx_HAL_Driver/Src/stm32f1xx_hal_dma.c ****   HAL_StatusTypeDef status = HAL_OK;
 696:base/chip/Drivers/STM32F1xx_HAL_Driver/Src/stm32f1xx_hal_dma.c ****   
 697:base/chip/Drivers/STM32F1xx_HAL_Driver/Src/stm32f1xx_hal_dma.c ****   /* Process locked */
 698:base/chip/Drivers/STM32F1xx_HAL_Driver/Src/stm32f1xx_hal_dma.c ****   __HAL_LOCK(hdma);
 699:base/chip/Drivers/STM32F1xx_HAL_Driver/Src/stm32f1xx_hal_dma.c ****   
 700:base/chip/Drivers/STM32F1xx_HAL_Driver/Src/stm32f1xx_hal_dma.c ****   if(HAL_DMA_STATE_READY == hdma->State)
 701:base/chip/Drivers/STM32F1xx_HAL_Driver/Src/stm32f1xx_hal_dma.c ****   {
 702:base/chip/Drivers/STM32F1xx_HAL_Driver/Src/stm32f1xx_hal_dma.c ****     switch (CallbackID)
 703:base/chip/Drivers/STM32F1xx_HAL_Driver/Src/stm32f1xx_hal_dma.c ****     {
 704:base/chip/Drivers/STM32F1xx_HAL_Driver/Src/stm32f1xx_hal_dma.c ****     case  HAL_DMA_XFER_CPLT_CB_ID:
 705:base/chip/Drivers/STM32F1xx_HAL_Driver/Src/stm32f1xx_hal_dma.c ****       hdma->XferCpltCallback = pCallback;
 706:base/chip/Drivers/STM32F1xx_HAL_Driver/Src/stm32f1xx_hal_dma.c ****       break;
 707:base/chip/Drivers/STM32F1xx_HAL_Driver/Src/stm32f1xx_hal_dma.c ****       
 708:base/chip/Drivers/STM32F1xx_HAL_Driver/Src/stm32f1xx_hal_dma.c ****     case  HAL_DMA_XFER_HALFCPLT_CB_ID:
 709:base/chip/Drivers/STM32F1xx_HAL_Driver/Src/stm32f1xx_hal_dma.c ****       hdma->XferHalfCpltCallback = pCallback;
 710:base/chip/Drivers/STM32F1xx_HAL_Driver/Src/stm32f1xx_hal_dma.c ****       break;         
 711:base/chip/Drivers/STM32F1xx_HAL_Driver/Src/stm32f1xx_hal_dma.c **** 
 712:base/chip/Drivers/STM32F1xx_HAL_Driver/Src/stm32f1xx_hal_dma.c ****     case  HAL_DMA_XFER_ERROR_CB_ID:
 713:base/chip/Drivers/STM32F1xx_HAL_Driver/Src/stm32f1xx_hal_dma.c ****       hdma->XferErrorCallback = pCallback;
 714:base/chip/Drivers/STM32F1xx_HAL_Driver/Src/stm32f1xx_hal_dma.c ****       break;         
 715:base/chip/Drivers/STM32F1xx_HAL_Driver/Src/stm32f1xx_hal_dma.c ****       
 716:base/chip/Drivers/STM32F1xx_HAL_Driver/Src/stm32f1xx_hal_dma.c ****     case  HAL_DMA_XFER_ABORT_CB_ID:
ARM GAS  /tmp/ccqu0Abp.s 			page 14


 717:base/chip/Drivers/STM32F1xx_HAL_Driver/Src/stm32f1xx_hal_dma.c ****       hdma->XferAbortCallback = pCallback;
 718:base/chip/Drivers/STM32F1xx_HAL_Driver/Src/stm32f1xx_hal_dma.c ****       break; 
 719:base/chip/Drivers/STM32F1xx_HAL_Driver/Src/stm32f1xx_hal_dma.c ****       
 720:base/chip/Drivers/STM32F1xx_HAL_Driver/Src/stm32f1xx_hal_dma.c ****     default:
 721:base/chip/Drivers/STM32F1xx_HAL_Driver/Src/stm32f1xx_hal_dma.c ****       status = HAL_ERROR;
 722:base/chip/Drivers/STM32F1xx_HAL_Driver/Src/stm32f1xx_hal_dma.c ****       break;                                                            
 723:base/chip/Drivers/STM32F1xx_HAL_Driver/Src/stm32f1xx_hal_dma.c ****     }
 724:base/chip/Drivers/STM32F1xx_HAL_Driver/Src/stm32f1xx_hal_dma.c ****   }
 725:base/chip/Drivers/STM32F1xx_HAL_Driver/Src/stm32f1xx_hal_dma.c ****   else
 726:base/chip/Drivers/STM32F1xx_HAL_Driver/Src/stm32f1xx_hal_dma.c ****   {
 727:base/chip/Drivers/STM32F1xx_HAL_Driver/Src/stm32f1xx_hal_dma.c ****     status = HAL_ERROR;
 728:base/chip/Drivers/STM32F1xx_HAL_Driver/Src/stm32f1xx_hal_dma.c ****   } 
 729:base/chip/Drivers/STM32F1xx_HAL_Driver/Src/stm32f1xx_hal_dma.c ****   
 730:base/chip/Drivers/STM32F1xx_HAL_Driver/Src/stm32f1xx_hal_dma.c ****   /* Release Lock */
 731:base/chip/Drivers/STM32F1xx_HAL_Driver/Src/stm32f1xx_hal_dma.c ****   __HAL_UNLOCK(hdma);
 732:base/chip/Drivers/STM32F1xx_HAL_Driver/Src/stm32f1xx_hal_dma.c ****   
 733:base/chip/Drivers/STM32F1xx_HAL_Driver/Src/stm32f1xx_hal_dma.c ****   return status;
 734:base/chip/Drivers/STM32F1xx_HAL_Driver/Src/stm32f1xx_hal_dma.c **** }
 735:base/chip/Drivers/STM32F1xx_HAL_Driver/Src/stm32f1xx_hal_dma.c **** 
 736:base/chip/Drivers/STM32F1xx_HAL_Driver/Src/stm32f1xx_hal_dma.c **** /**
 737:base/chip/Drivers/STM32F1xx_HAL_Driver/Src/stm32f1xx_hal_dma.c ****   * @brief UnRegister callbacks
 738:base/chip/Drivers/STM32F1xx_HAL_Driver/Src/stm32f1xx_hal_dma.c ****   * @param hdma: pointer to a DMA_HandleTypeDef structure that contains
 739:base/chip/Drivers/STM32F1xx_HAL_Driver/Src/stm32f1xx_hal_dma.c ****   *              the configuration information for the specified DMA Channel.
 740:base/chip/Drivers/STM32F1xx_HAL_Driver/Src/stm32f1xx_hal_dma.c ****   * @param CallbackID: User Callback identifer
 741:base/chip/Drivers/STM32F1xx_HAL_Driver/Src/stm32f1xx_hal_dma.c ****   *                    a HAL_DMA_CallbackIDTypeDef ENUM as parameter.
 742:base/chip/Drivers/STM32F1xx_HAL_Driver/Src/stm32f1xx_hal_dma.c ****   * @retval HAL status
 743:base/chip/Drivers/STM32F1xx_HAL_Driver/Src/stm32f1xx_hal_dma.c ****   */              
 744:base/chip/Drivers/STM32F1xx_HAL_Driver/Src/stm32f1xx_hal_dma.c **** HAL_StatusTypeDef HAL_DMA_UnRegisterCallback(DMA_HandleTypeDef *hdma, HAL_DMA_CallbackIDTypeDef Cal
 745:base/chip/Drivers/STM32F1xx_HAL_Driver/Src/stm32f1xx_hal_dma.c **** {
 746:base/chip/Drivers/STM32F1xx_HAL_Driver/Src/stm32f1xx_hal_dma.c ****   HAL_StatusTypeDef status = HAL_OK;
 747:base/chip/Drivers/STM32F1xx_HAL_Driver/Src/stm32f1xx_hal_dma.c **** 
 748:base/chip/Drivers/STM32F1xx_HAL_Driver/Src/stm32f1xx_hal_dma.c ****   /* Process locked */
 749:base/chip/Drivers/STM32F1xx_HAL_Driver/Src/stm32f1xx_hal_dma.c ****   __HAL_LOCK(hdma);
 750:base/chip/Drivers/STM32F1xx_HAL_Driver/Src/stm32f1xx_hal_dma.c ****   
 751:base/chip/Drivers/STM32F1xx_HAL_Driver/Src/stm32f1xx_hal_dma.c ****   if(HAL_DMA_STATE_READY == hdma->State)
 752:base/chip/Drivers/STM32F1xx_HAL_Driver/Src/stm32f1xx_hal_dma.c ****   {
 753:base/chip/Drivers/STM32F1xx_HAL_Driver/Src/stm32f1xx_hal_dma.c ****     switch (CallbackID)
 754:base/chip/Drivers/STM32F1xx_HAL_Driver/Src/stm32f1xx_hal_dma.c ****     {
 755:base/chip/Drivers/STM32F1xx_HAL_Driver/Src/stm32f1xx_hal_dma.c ****     case  HAL_DMA_XFER_CPLT_CB_ID:
 756:base/chip/Drivers/STM32F1xx_HAL_Driver/Src/stm32f1xx_hal_dma.c ****       hdma->XferCpltCallback = NULL;
 757:base/chip/Drivers/STM32F1xx_HAL_Driver/Src/stm32f1xx_hal_dma.c ****       break;
 758:base/chip/Drivers/STM32F1xx_HAL_Driver/Src/stm32f1xx_hal_dma.c **** 
 759:base/chip/Drivers/STM32F1xx_HAL_Driver/Src/stm32f1xx_hal_dma.c ****     case  HAL_DMA_XFER_HALFCPLT_CB_ID:
 760:base/chip/Drivers/STM32F1xx_HAL_Driver/Src/stm32f1xx_hal_dma.c ****       hdma->XferHalfCpltCallback = NULL;
 761:base/chip/Drivers/STM32F1xx_HAL_Driver/Src/stm32f1xx_hal_dma.c ****       break;         
 762:base/chip/Drivers/STM32F1xx_HAL_Driver/Src/stm32f1xx_hal_dma.c **** 
 763:base/chip/Drivers/STM32F1xx_HAL_Driver/Src/stm32f1xx_hal_dma.c ****     case  HAL_DMA_XFER_ERROR_CB_ID:
 764:base/chip/Drivers/STM32F1xx_HAL_Driver/Src/stm32f1xx_hal_dma.c ****       hdma->XferErrorCallback = NULL;
 765:base/chip/Drivers/STM32F1xx_HAL_Driver/Src/stm32f1xx_hal_dma.c ****       break;         
 766:base/chip/Drivers/STM32F1xx_HAL_Driver/Src/stm32f1xx_hal_dma.c **** 
 767:base/chip/Drivers/STM32F1xx_HAL_Driver/Src/stm32f1xx_hal_dma.c ****     case  HAL_DMA_XFER_ABORT_CB_ID:
 768:base/chip/Drivers/STM32F1xx_HAL_Driver/Src/stm32f1xx_hal_dma.c ****       hdma->XferAbortCallback = NULL;
 769:base/chip/Drivers/STM32F1xx_HAL_Driver/Src/stm32f1xx_hal_dma.c ****       break; 
 770:base/chip/Drivers/STM32F1xx_HAL_Driver/Src/stm32f1xx_hal_dma.c **** 
 771:base/chip/Drivers/STM32F1xx_HAL_Driver/Src/stm32f1xx_hal_dma.c ****     case   HAL_DMA_XFER_ALL_CB_ID:
 772:base/chip/Drivers/STM32F1xx_HAL_Driver/Src/stm32f1xx_hal_dma.c ****       hdma->XferCpltCallback = NULL;
 773:base/chip/Drivers/STM32F1xx_HAL_Driver/Src/stm32f1xx_hal_dma.c ****       hdma->XferHalfCpltCallback = NULL;
ARM GAS  /tmp/ccqu0Abp.s 			page 15


 774:base/chip/Drivers/STM32F1xx_HAL_Driver/Src/stm32f1xx_hal_dma.c ****       hdma->XferErrorCallback = NULL;
 775:base/chip/Drivers/STM32F1xx_HAL_Driver/Src/stm32f1xx_hal_dma.c ****       hdma->XferAbortCallback = NULL;
 776:base/chip/Drivers/STM32F1xx_HAL_Driver/Src/stm32f1xx_hal_dma.c ****       break; 
 777:base/chip/Drivers/STM32F1xx_HAL_Driver/Src/stm32f1xx_hal_dma.c **** 
 778:base/chip/Drivers/STM32F1xx_HAL_Driver/Src/stm32f1xx_hal_dma.c ****     default:
 779:base/chip/Drivers/STM32F1xx_HAL_Driver/Src/stm32f1xx_hal_dma.c ****       status = HAL_ERROR;
 780:base/chip/Drivers/STM32F1xx_HAL_Driver/Src/stm32f1xx_hal_dma.c ****       break;
 781:base/chip/Drivers/STM32F1xx_HAL_Driver/Src/stm32f1xx_hal_dma.c ****     }
 782:base/chip/Drivers/STM32F1xx_HAL_Driver/Src/stm32f1xx_hal_dma.c ****   }
 783:base/chip/Drivers/STM32F1xx_HAL_Driver/Src/stm32f1xx_hal_dma.c ****   else
 784:base/chip/Drivers/STM32F1xx_HAL_Driver/Src/stm32f1xx_hal_dma.c ****   {
 785:base/chip/Drivers/STM32F1xx_HAL_Driver/Src/stm32f1xx_hal_dma.c ****     status = HAL_ERROR;
 786:base/chip/Drivers/STM32F1xx_HAL_Driver/Src/stm32f1xx_hal_dma.c ****   } 
 787:base/chip/Drivers/STM32F1xx_HAL_Driver/Src/stm32f1xx_hal_dma.c ****   
 788:base/chip/Drivers/STM32F1xx_HAL_Driver/Src/stm32f1xx_hal_dma.c ****   /* Release Lock */
 789:base/chip/Drivers/STM32F1xx_HAL_Driver/Src/stm32f1xx_hal_dma.c ****   __HAL_UNLOCK(hdma);
 790:base/chip/Drivers/STM32F1xx_HAL_Driver/Src/stm32f1xx_hal_dma.c ****   
 791:base/chip/Drivers/STM32F1xx_HAL_Driver/Src/stm32f1xx_hal_dma.c ****   return status;
 792:base/chip/Drivers/STM32F1xx_HAL_Driver/Src/stm32f1xx_hal_dma.c **** }
 793:base/chip/Drivers/STM32F1xx_HAL_Driver/Src/stm32f1xx_hal_dma.c ****   
 794:base/chip/Drivers/STM32F1xx_HAL_Driver/Src/stm32f1xx_hal_dma.c **** /**
 795:base/chip/Drivers/STM32F1xx_HAL_Driver/Src/stm32f1xx_hal_dma.c ****   * @}
 796:base/chip/Drivers/STM32F1xx_HAL_Driver/Src/stm32f1xx_hal_dma.c ****   */
 797:base/chip/Drivers/STM32F1xx_HAL_Driver/Src/stm32f1xx_hal_dma.c **** 
 798:base/chip/Drivers/STM32F1xx_HAL_Driver/Src/stm32f1xx_hal_dma.c **** /** @defgroup DMA_Exported_Functions_Group3 Peripheral State and Errors functions
 799:base/chip/Drivers/STM32F1xx_HAL_Driver/Src/stm32f1xx_hal_dma.c ****   *  @brief    Peripheral State and Errors functions
 800:base/chip/Drivers/STM32F1xx_HAL_Driver/Src/stm32f1xx_hal_dma.c ****   *
 801:base/chip/Drivers/STM32F1xx_HAL_Driver/Src/stm32f1xx_hal_dma.c **** @verbatim
 802:base/chip/Drivers/STM32F1xx_HAL_Driver/Src/stm32f1xx_hal_dma.c ****  ===============================================================================
 803:base/chip/Drivers/STM32F1xx_HAL_Driver/Src/stm32f1xx_hal_dma.c ****             ##### Peripheral State and Errors functions #####
 804:base/chip/Drivers/STM32F1xx_HAL_Driver/Src/stm32f1xx_hal_dma.c ****  ===============================================================================  
 805:base/chip/Drivers/STM32F1xx_HAL_Driver/Src/stm32f1xx_hal_dma.c ****     [..]
 806:base/chip/Drivers/STM32F1xx_HAL_Driver/Src/stm32f1xx_hal_dma.c ****     This subsection provides functions allowing to
 807:base/chip/Drivers/STM32F1xx_HAL_Driver/Src/stm32f1xx_hal_dma.c ****       (+) Check the DMA state
 808:base/chip/Drivers/STM32F1xx_HAL_Driver/Src/stm32f1xx_hal_dma.c ****       (+) Get error code
 809:base/chip/Drivers/STM32F1xx_HAL_Driver/Src/stm32f1xx_hal_dma.c **** 
 810:base/chip/Drivers/STM32F1xx_HAL_Driver/Src/stm32f1xx_hal_dma.c **** @endverbatim
 811:base/chip/Drivers/STM32F1xx_HAL_Driver/Src/stm32f1xx_hal_dma.c ****   * @{
 812:base/chip/Drivers/STM32F1xx_HAL_Driver/Src/stm32f1xx_hal_dma.c ****   */
 813:base/chip/Drivers/STM32F1xx_HAL_Driver/Src/stm32f1xx_hal_dma.c **** 
 814:base/chip/Drivers/STM32F1xx_HAL_Driver/Src/stm32f1xx_hal_dma.c **** /**
 815:base/chip/Drivers/STM32F1xx_HAL_Driver/Src/stm32f1xx_hal_dma.c ****   * @brief  Return the DMA hande state.
 816:base/chip/Drivers/STM32F1xx_HAL_Driver/Src/stm32f1xx_hal_dma.c ****   * @param  hdma: pointer to a DMA_HandleTypeDef structure that contains
 817:base/chip/Drivers/STM32F1xx_HAL_Driver/Src/stm32f1xx_hal_dma.c ****   *               the configuration information for the specified DMA Channel.
 818:base/chip/Drivers/STM32F1xx_HAL_Driver/Src/stm32f1xx_hal_dma.c ****   * @retval HAL state
 819:base/chip/Drivers/STM32F1xx_HAL_Driver/Src/stm32f1xx_hal_dma.c ****   */
 820:base/chip/Drivers/STM32F1xx_HAL_Driver/Src/stm32f1xx_hal_dma.c **** HAL_DMA_StateTypeDef HAL_DMA_GetState(DMA_HandleTypeDef *hdma)
 821:base/chip/Drivers/STM32F1xx_HAL_Driver/Src/stm32f1xx_hal_dma.c **** {
 822:base/chip/Drivers/STM32F1xx_HAL_Driver/Src/stm32f1xx_hal_dma.c ****   /* Return DMA handle state */
 823:base/chip/Drivers/STM32F1xx_HAL_Driver/Src/stm32f1xx_hal_dma.c ****   return hdma->State;
 824:base/chip/Drivers/STM32F1xx_HAL_Driver/Src/stm32f1xx_hal_dma.c **** }
 825:base/chip/Drivers/STM32F1xx_HAL_Driver/Src/stm32f1xx_hal_dma.c **** 
 826:base/chip/Drivers/STM32F1xx_HAL_Driver/Src/stm32f1xx_hal_dma.c **** /**
 827:base/chip/Drivers/STM32F1xx_HAL_Driver/Src/stm32f1xx_hal_dma.c ****   * @brief  Return the DMA error code.
 828:base/chip/Drivers/STM32F1xx_HAL_Driver/Src/stm32f1xx_hal_dma.c ****   * @param  hdma : pointer to a DMA_HandleTypeDef structure that contains
 829:base/chip/Drivers/STM32F1xx_HAL_Driver/Src/stm32f1xx_hal_dma.c ****   *              the configuration information for the specified DMA Channel.
 830:base/chip/Drivers/STM32F1xx_HAL_Driver/Src/stm32f1xx_hal_dma.c ****   * @retval DMA Error Code
ARM GAS  /tmp/ccqu0Abp.s 			page 16


 831:base/chip/Drivers/STM32F1xx_HAL_Driver/Src/stm32f1xx_hal_dma.c ****   */
 832:base/chip/Drivers/STM32F1xx_HAL_Driver/Src/stm32f1xx_hal_dma.c **** uint32_t HAL_DMA_GetError(DMA_HandleTypeDef *hdma)
 833:base/chip/Drivers/STM32F1xx_HAL_Driver/Src/stm32f1xx_hal_dma.c **** {
 834:base/chip/Drivers/STM32F1xx_HAL_Driver/Src/stm32f1xx_hal_dma.c ****   return hdma->ErrorCode;
 835:base/chip/Drivers/STM32F1xx_HAL_Driver/Src/stm32f1xx_hal_dma.c **** }
 836:base/chip/Drivers/STM32F1xx_HAL_Driver/Src/stm32f1xx_hal_dma.c **** 
 837:base/chip/Drivers/STM32F1xx_HAL_Driver/Src/stm32f1xx_hal_dma.c **** /**
 838:base/chip/Drivers/STM32F1xx_HAL_Driver/Src/stm32f1xx_hal_dma.c ****   * @}
 839:base/chip/Drivers/STM32F1xx_HAL_Driver/Src/stm32f1xx_hal_dma.c ****   */
 840:base/chip/Drivers/STM32F1xx_HAL_Driver/Src/stm32f1xx_hal_dma.c **** 
 841:base/chip/Drivers/STM32F1xx_HAL_Driver/Src/stm32f1xx_hal_dma.c **** /**
 842:base/chip/Drivers/STM32F1xx_HAL_Driver/Src/stm32f1xx_hal_dma.c ****   * @}
 843:base/chip/Drivers/STM32F1xx_HAL_Driver/Src/stm32f1xx_hal_dma.c ****   */
 844:base/chip/Drivers/STM32F1xx_HAL_Driver/Src/stm32f1xx_hal_dma.c **** 
 845:base/chip/Drivers/STM32F1xx_HAL_Driver/Src/stm32f1xx_hal_dma.c **** /** @addtogroup DMA_Private_Functions
 846:base/chip/Drivers/STM32F1xx_HAL_Driver/Src/stm32f1xx_hal_dma.c ****   * @{
 847:base/chip/Drivers/STM32F1xx_HAL_Driver/Src/stm32f1xx_hal_dma.c ****   */
 848:base/chip/Drivers/STM32F1xx_HAL_Driver/Src/stm32f1xx_hal_dma.c **** 
 849:base/chip/Drivers/STM32F1xx_HAL_Driver/Src/stm32f1xx_hal_dma.c **** /**
 850:base/chip/Drivers/STM32F1xx_HAL_Driver/Src/stm32f1xx_hal_dma.c ****   * @brief  Sets the DMA Transfer parameter.
 851:base/chip/Drivers/STM32F1xx_HAL_Driver/Src/stm32f1xx_hal_dma.c ****   * @param  hdma:       pointer to a DMA_HandleTypeDef structure that contains
 852:base/chip/Drivers/STM32F1xx_HAL_Driver/Src/stm32f1xx_hal_dma.c ****   *                     the configuration information for the specified DMA Channel.
 853:base/chip/Drivers/STM32F1xx_HAL_Driver/Src/stm32f1xx_hal_dma.c ****   * @param  SrcAddress: The source memory Buffer address
 854:base/chip/Drivers/STM32F1xx_HAL_Driver/Src/stm32f1xx_hal_dma.c ****   * @param  DstAddress: The destination memory Buffer address
 855:base/chip/Drivers/STM32F1xx_HAL_Driver/Src/stm32f1xx_hal_dma.c ****   * @param  DataLength: The length of data to be transferred from source to destination
 856:base/chip/Drivers/STM32F1xx_HAL_Driver/Src/stm32f1xx_hal_dma.c ****   * @retval HAL status
 857:base/chip/Drivers/STM32F1xx_HAL_Driver/Src/stm32f1xx_hal_dma.c ****   */
 858:base/chip/Drivers/STM32F1xx_HAL_Driver/Src/stm32f1xx_hal_dma.c **** static void DMA_SetConfig(DMA_HandleTypeDef *hdma, uint32_t SrcAddress, uint32_t DstAddress, uint32
 859:base/chip/Drivers/STM32F1xx_HAL_Driver/Src/stm32f1xx_hal_dma.c **** {
  27              		.loc 1 859 1 view -0
  28              		.cfi_startproc
  29              		@ args = 0, pretend = 0, frame = 0
  30              		@ frame_needed = 0, uses_anonymous_args = 0
  31              		@ link register save eliminated.
  32              		.loc 1 859 1 is_stmt 0 view .LVU1
  33 0000 30B4     		push	{r4, r5}
  34              	.LCFI0:
  35              		.cfi_def_cfa_offset 8
  36              		.cfi_offset 4, -8
  37              		.cfi_offset 5, -4
 860:base/chip/Drivers/STM32F1xx_HAL_Driver/Src/stm32f1xx_hal_dma.c ****   /* Clear all flags */
 861:base/chip/Drivers/STM32F1xx_HAL_Driver/Src/stm32f1xx_hal_dma.c ****   hdma->DmaBaseAddress->IFCR = (DMA_ISR_GIF1 << hdma->ChannelIndex);
  38              		.loc 1 861 3 is_stmt 1 view .LVU2
  39              		.loc 1 861 46 is_stmt 0 view .LVU3
  40 0002 0124     		movs	r4, #1
  41 0004 056C     		ldr	r5, [r0, #64]
  42 0006 AC40     		lsls	r4, r4, r5
  43              		.loc 1 861 30 view .LVU4
  44 0008 C56B     		ldr	r5, [r0, #60]
  45 000a 6C60     		str	r4, [r5, #4]
 862:base/chip/Drivers/STM32F1xx_HAL_Driver/Src/stm32f1xx_hal_dma.c **** 
 863:base/chip/Drivers/STM32F1xx_HAL_Driver/Src/stm32f1xx_hal_dma.c ****   /* Configure DMA Channel data length */
 864:base/chip/Drivers/STM32F1xx_HAL_Driver/Src/stm32f1xx_hal_dma.c ****   hdma->Instance->CNDTR = DataLength;
  46              		.loc 1 864 3 is_stmt 1 view .LVU5
  47              		.loc 1 864 7 is_stmt 0 view .LVU6
  48 000c 0468     		ldr	r4, [r0]
  49              		.loc 1 864 25 view .LVU7
ARM GAS  /tmp/ccqu0Abp.s 			page 17


  50 000e 6360     		str	r3, [r4, #4]
 865:base/chip/Drivers/STM32F1xx_HAL_Driver/Src/stm32f1xx_hal_dma.c **** 
 866:base/chip/Drivers/STM32F1xx_HAL_Driver/Src/stm32f1xx_hal_dma.c ****   /* Memory to Peripheral */
 867:base/chip/Drivers/STM32F1xx_HAL_Driver/Src/stm32f1xx_hal_dma.c ****   if((hdma->Init.Direction) == DMA_MEMORY_TO_PERIPH)
  51              		.loc 1 867 3 is_stmt 1 view .LVU8
  52              		.loc 1 867 17 is_stmt 0 view .LVU9
  53 0010 4368     		ldr	r3, [r0, #4]
  54              	.LVL1:
  55              		.loc 1 867 5 view .LVU10
  56 0012 102B     		cmp	r3, #16
  57 0014 05D0     		beq	.L5
 868:base/chip/Drivers/STM32F1xx_HAL_Driver/Src/stm32f1xx_hal_dma.c ****   {
 869:base/chip/Drivers/STM32F1xx_HAL_Driver/Src/stm32f1xx_hal_dma.c ****     /* Configure DMA Channel destination address */
 870:base/chip/Drivers/STM32F1xx_HAL_Driver/Src/stm32f1xx_hal_dma.c ****     hdma->Instance->CPAR = DstAddress;
 871:base/chip/Drivers/STM32F1xx_HAL_Driver/Src/stm32f1xx_hal_dma.c **** 
 872:base/chip/Drivers/STM32F1xx_HAL_Driver/Src/stm32f1xx_hal_dma.c ****     /* Configure DMA Channel source address */
 873:base/chip/Drivers/STM32F1xx_HAL_Driver/Src/stm32f1xx_hal_dma.c ****     hdma->Instance->CMAR = SrcAddress;
 874:base/chip/Drivers/STM32F1xx_HAL_Driver/Src/stm32f1xx_hal_dma.c ****   }
 875:base/chip/Drivers/STM32F1xx_HAL_Driver/Src/stm32f1xx_hal_dma.c ****   /* Peripheral to Memory */
 876:base/chip/Drivers/STM32F1xx_HAL_Driver/Src/stm32f1xx_hal_dma.c ****   else
 877:base/chip/Drivers/STM32F1xx_HAL_Driver/Src/stm32f1xx_hal_dma.c ****   {
 878:base/chip/Drivers/STM32F1xx_HAL_Driver/Src/stm32f1xx_hal_dma.c ****     /* Configure DMA Channel source address */
 879:base/chip/Drivers/STM32F1xx_HAL_Driver/Src/stm32f1xx_hal_dma.c ****     hdma->Instance->CPAR = SrcAddress;
  58              		.loc 1 879 5 is_stmt 1 view .LVU11
  59              		.loc 1 879 9 is_stmt 0 view .LVU12
  60 0016 0368     		ldr	r3, [r0]
  61              		.loc 1 879 26 view .LVU13
  62 0018 9960     		str	r1, [r3, #8]
  63              	.LVL2:
 880:base/chip/Drivers/STM32F1xx_HAL_Driver/Src/stm32f1xx_hal_dma.c **** 
 881:base/chip/Drivers/STM32F1xx_HAL_Driver/Src/stm32f1xx_hal_dma.c ****     /* Configure DMA Channel destination address */
 882:base/chip/Drivers/STM32F1xx_HAL_Driver/Src/stm32f1xx_hal_dma.c ****     hdma->Instance->CMAR = DstAddress;
  64              		.loc 1 882 5 is_stmt 1 view .LVU14
  65              		.loc 1 882 9 is_stmt 0 view .LVU15
  66 001a 0368     		ldr	r3, [r0]
  67              		.loc 1 882 26 view .LVU16
  68 001c DA60     		str	r2, [r3, #12]
  69              	.L1:
 883:base/chip/Drivers/STM32F1xx_HAL_Driver/Src/stm32f1xx_hal_dma.c ****   }
 884:base/chip/Drivers/STM32F1xx_HAL_Driver/Src/stm32f1xx_hal_dma.c **** }
  70              		.loc 1 884 1 view .LVU17
  71 001e 30BC     		pop	{r4, r5}
  72              	.LCFI1:
  73              		.cfi_remember_state
  74              		.cfi_restore 5
  75              		.cfi_restore 4
  76              		.cfi_def_cfa_offset 0
  77 0020 7047     		bx	lr
  78              	.LVL3:
  79              	.L5:
  80              	.LCFI2:
  81              		.cfi_restore_state
 870:base/chip/Drivers/STM32F1xx_HAL_Driver/Src/stm32f1xx_hal_dma.c **** 
  82              		.loc 1 870 5 is_stmt 1 view .LVU18
 870:base/chip/Drivers/STM32F1xx_HAL_Driver/Src/stm32f1xx_hal_dma.c **** 
  83              		.loc 1 870 9 is_stmt 0 view .LVU19
  84 0022 0368     		ldr	r3, [r0]
ARM GAS  /tmp/ccqu0Abp.s 			page 18


 870:base/chip/Drivers/STM32F1xx_HAL_Driver/Src/stm32f1xx_hal_dma.c **** 
  85              		.loc 1 870 26 view .LVU20
  86 0024 9A60     		str	r2, [r3, #8]
  87              	.LVL4:
 873:base/chip/Drivers/STM32F1xx_HAL_Driver/Src/stm32f1xx_hal_dma.c ****   }
  88              		.loc 1 873 5 is_stmt 1 view .LVU21
 873:base/chip/Drivers/STM32F1xx_HAL_Driver/Src/stm32f1xx_hal_dma.c ****   }
  89              		.loc 1 873 9 is_stmt 0 view .LVU22
  90 0026 0368     		ldr	r3, [r0]
 873:base/chip/Drivers/STM32F1xx_HAL_Driver/Src/stm32f1xx_hal_dma.c ****   }
  91              		.loc 1 873 26 view .LVU23
  92 0028 D960     		str	r1, [r3, #12]
  93 002a F8E7     		b	.L1
  94              		.cfi_endproc
  95              	.LFE77:
  97              		.section	.text.HAL_DMA_Init,"ax",%progbits
  98              		.align	1
  99              		.global	HAL_DMA_Init
 100              		.syntax unified
 101              		.thumb
 102              		.thumb_func
 103              		.fpu softvfp
 105              	HAL_DMA_Init:
 106              	.LVL5:
 107              	.LFB65:
 144:base/chip/Drivers/STM32F1xx_HAL_Driver/Src/stm32f1xx_hal_dma.c ****   uint32_t tmp = 0U;
 108              		.loc 1 144 1 is_stmt 1 view -0
 109              		.cfi_startproc
 110              		@ args = 0, pretend = 0, frame = 0
 111              		@ frame_needed = 0, uses_anonymous_args = 0
 112              		@ link register save eliminated.
 145:base/chip/Drivers/STM32F1xx_HAL_Driver/Src/stm32f1xx_hal_dma.c **** 
 113              		.loc 1 145 3 view .LVU25
 148:base/chip/Drivers/STM32F1xx_HAL_Driver/Src/stm32f1xx_hal_dma.c ****   {
 114              		.loc 1 148 3 view .LVU26
 148:base/chip/Drivers/STM32F1xx_HAL_Driver/Src/stm32f1xx_hal_dma.c ****   {
 115              		.loc 1 148 5 is_stmt 0 view .LVU27
 116 0000 60B3     		cbz	r0, .L8
 144:base/chip/Drivers/STM32F1xx_HAL_Driver/Src/stm32f1xx_hal_dma.c ****   uint32_t tmp = 0U;
 117              		.loc 1 144 1 view .LVU28
 118 0002 10B4     		push	{r4}
 119              	.LCFI3:
 120              		.cfi_def_cfa_offset 4
 121              		.cfi_offset 4, -4
 122 0004 0246     		mov	r2, r0
 154:base/chip/Drivers/STM32F1xx_HAL_Driver/Src/stm32f1xx_hal_dma.c ****   assert_param(IS_DMA_DIRECTION(hdma->Init.Direction));
 123              		.loc 1 154 3 is_stmt 1 view .LVU29
 155:base/chip/Drivers/STM32F1xx_HAL_Driver/Src/stm32f1xx_hal_dma.c ****   assert_param(IS_DMA_PERIPHERAL_INC_STATE(hdma->Init.PeriphInc));
 124              		.loc 1 155 3 view .LVU30
 156:base/chip/Drivers/STM32F1xx_HAL_Driver/Src/stm32f1xx_hal_dma.c ****   assert_param(IS_DMA_MEMORY_INC_STATE(hdma->Init.MemInc));
 125              		.loc 1 156 3 view .LVU31
 157:base/chip/Drivers/STM32F1xx_HAL_Driver/Src/stm32f1xx_hal_dma.c ****   assert_param(IS_DMA_PERIPHERAL_DATA_SIZE(hdma->Init.PeriphDataAlignment));
 126              		.loc 1 157 3 view .LVU32
 158:base/chip/Drivers/STM32F1xx_HAL_Driver/Src/stm32f1xx_hal_dma.c ****   assert_param(IS_DMA_MEMORY_DATA_SIZE(hdma->Init.MemDataAlignment));
 127              		.loc 1 158 3 view .LVU33
 159:base/chip/Drivers/STM32F1xx_HAL_Driver/Src/stm32f1xx_hal_dma.c ****   assert_param(IS_DMA_MODE(hdma->Init.Mode));
 128              		.loc 1 159 3 view .LVU34
ARM GAS  /tmp/ccqu0Abp.s 			page 19


 160:base/chip/Drivers/STM32F1xx_HAL_Driver/Src/stm32f1xx_hal_dma.c ****   assert_param(IS_DMA_PRIORITY(hdma->Init.Priority));
 129              		.loc 1 160 3 view .LVU35
 161:base/chip/Drivers/STM32F1xx_HAL_Driver/Src/stm32f1xx_hal_dma.c **** 
 130              		.loc 1 161 3 view .LVU36
 179:base/chip/Drivers/STM32F1xx_HAL_Driver/Src/stm32f1xx_hal_dma.c ****   hdma->DmaBaseAddress = DMA1;
 131              		.loc 1 179 3 view .LVU37
 179:base/chip/Drivers/STM32F1xx_HAL_Driver/Src/stm32f1xx_hal_dma.c ****   hdma->DmaBaseAddress = DMA1;
 132              		.loc 1 179 40 is_stmt 0 view .LVU38
 133 0006 0168     		ldr	r1, [r0]
 179:base/chip/Drivers/STM32F1xx_HAL_Driver/Src/stm32f1xx_hal_dma.c ****   hdma->DmaBaseAddress = DMA1;
 134              		.loc 1 179 51 view .LVU39
 135 0008 154B     		ldr	r3, .L13
 136 000a 0B44     		add	r3, r3, r1
 179:base/chip/Drivers/STM32F1xx_HAL_Driver/Src/stm32f1xx_hal_dma.c ****   hdma->DmaBaseAddress = DMA1;
 137              		.loc 1 179 78 view .LVU40
 138 000c 1548     		ldr	r0, .L13+4
 139              	.LVL6:
 179:base/chip/Drivers/STM32F1xx_HAL_Driver/Src/stm32f1xx_hal_dma.c ****   hdma->DmaBaseAddress = DMA1;
 140              		.loc 1 179 78 view .LVU41
 141 000e A0FB0303 		umull	r0, r3, r0, r3
 142 0012 1B09     		lsrs	r3, r3, #4
 179:base/chip/Drivers/STM32F1xx_HAL_Driver/Src/stm32f1xx_hal_dma.c ****   hdma->DmaBaseAddress = DMA1;
 143              		.loc 1 179 133 view .LVU42
 144 0014 9B00     		lsls	r3, r3, #2
 179:base/chip/Drivers/STM32F1xx_HAL_Driver/Src/stm32f1xx_hal_dma.c ****   hdma->DmaBaseAddress = DMA1;
 145              		.loc 1 179 22 view .LVU43
 146 0016 1364     		str	r3, [r2, #64]
 180:base/chip/Drivers/STM32F1xx_HAL_Driver/Src/stm32f1xx_hal_dma.c **** #endif /* DMA2 */
 147              		.loc 1 180 3 is_stmt 1 view .LVU44
 180:base/chip/Drivers/STM32F1xx_HAL_Driver/Src/stm32f1xx_hal_dma.c **** #endif /* DMA2 */
 148              		.loc 1 180 24 is_stmt 0 view .LVU45
 149 0018 134B     		ldr	r3, .L13+8
 150 001a D363     		str	r3, [r2, #60]
 184:base/chip/Drivers/STM32F1xx_HAL_Driver/Src/stm32f1xx_hal_dma.c **** 
 151              		.loc 1 184 3 is_stmt 1 view .LVU46
 184:base/chip/Drivers/STM32F1xx_HAL_Driver/Src/stm32f1xx_hal_dma.c **** 
 152              		.loc 1 184 15 is_stmt 0 view .LVU47
 153 001c 0223     		movs	r3, #2
 154 001e 82F82130 		strb	r3, [r2, #33]
 187:base/chip/Drivers/STM32F1xx_HAL_Driver/Src/stm32f1xx_hal_dma.c **** 
 155              		.loc 1 187 3 is_stmt 1 view .LVU48
 187:base/chip/Drivers/STM32F1xx_HAL_Driver/Src/stm32f1xx_hal_dma.c **** 
 156              		.loc 1 187 7 is_stmt 0 view .LVU49
 157 0022 0868     		ldr	r0, [r1]
 158              	.LVL7:
 190:base/chip/Drivers/STM32F1xx_HAL_Driver/Src/stm32f1xx_hal_dma.c ****                       DMA_CCR_MINC  | DMA_CCR_PINC   | DMA_CCR_CIRC   | \
 159              		.loc 1 190 3 is_stmt 1 view .LVU50
 190:base/chip/Drivers/STM32F1xx_HAL_Driver/Src/stm32f1xx_hal_dma.c ****                       DMA_CCR_MINC  | DMA_CCR_PINC   | DMA_CCR_CIRC   | \
 160              		.loc 1 190 7 is_stmt 0 view .LVU51
 161 0024 20F47F50 		bic	r0, r0, #16320
 162              	.LVL8:
 190:base/chip/Drivers/STM32F1xx_HAL_Driver/Src/stm32f1xx_hal_dma.c ****                       DMA_CCR_MINC  | DMA_CCR_PINC   | DMA_CCR_CIRC   | \
 163              		.loc 1 190 7 view .LVU52
 164 0028 20F03000 		bic	r0, r0, #48
 165              	.LVL9:
 195:base/chip/Drivers/STM32F1xx_HAL_Driver/Src/stm32f1xx_hal_dma.c ****           hdma->Init.PeriphInc           | hdma->Init.MemInc           |
 166              		.loc 1 195 3 is_stmt 1 view .LVU53
ARM GAS  /tmp/ccqu0Abp.s 			page 20


 195:base/chip/Drivers/STM32F1xx_HAL_Driver/Src/stm32f1xx_hal_dma.c ****           hdma->Init.PeriphInc           | hdma->Init.MemInc           |
 167              		.loc 1 195 21 is_stmt 0 view .LVU54
 168 002c 5368     		ldr	r3, [r2, #4]
 195:base/chip/Drivers/STM32F1xx_HAL_Driver/Src/stm32f1xx_hal_dma.c ****           hdma->Init.PeriphInc           | hdma->Init.MemInc           |
 169              		.loc 1 195 39 view .LVU55
 170 002e 9468     		ldr	r4, [r2, #8]
 171 0030 2343     		orrs	r3, r3, r4
 196:base/chip/Drivers/STM32F1xx_HAL_Driver/Src/stm32f1xx_hal_dma.c ****           hdma->Init.PeriphDataAlignment | hdma->Init.MemDataAlignment |
 172              		.loc 1 196 42 view .LVU56
 173 0032 D468     		ldr	r4, [r2, #12]
 174 0034 2343     		orrs	r3, r3, r4
 196:base/chip/Drivers/STM32F1xx_HAL_Driver/Src/stm32f1xx_hal_dma.c ****           hdma->Init.PeriphDataAlignment | hdma->Init.MemDataAlignment |
 175              		.loc 1 196 72 view .LVU57
 176 0036 1469     		ldr	r4, [r2, #16]
 177 0038 2343     		orrs	r3, r3, r4
 197:base/chip/Drivers/STM32F1xx_HAL_Driver/Src/stm32f1xx_hal_dma.c ****           hdma->Init.Mode                | hdma->Init.Priority;
 178              		.loc 1 197 42 view .LVU58
 179 003a 5469     		ldr	r4, [r2, #20]
 180 003c 2343     		orrs	r3, r3, r4
 197:base/chip/Drivers/STM32F1xx_HAL_Driver/Src/stm32f1xx_hal_dma.c ****           hdma->Init.Mode                | hdma->Init.Priority;
 181              		.loc 1 197 72 view .LVU59
 182 003e 9469     		ldr	r4, [r2, #24]
 183 0040 2343     		orrs	r3, r3, r4
 198:base/chip/Drivers/STM32F1xx_HAL_Driver/Src/stm32f1xx_hal_dma.c **** 
 184              		.loc 1 198 42 view .LVU60
 185 0042 D469     		ldr	r4, [r2, #28]
 186 0044 2343     		orrs	r3, r3, r4
 195:base/chip/Drivers/STM32F1xx_HAL_Driver/Src/stm32f1xx_hal_dma.c ****           hdma->Init.PeriphInc           | hdma->Init.MemInc           |
 187              		.loc 1 195 7 view .LVU61
 188 0046 0343     		orrs	r3, r3, r0
 189              	.LVL10:
 201:base/chip/Drivers/STM32F1xx_HAL_Driver/Src/stm32f1xx_hal_dma.c **** 
 190              		.loc 1 201 3 is_stmt 1 view .LVU62
 201:base/chip/Drivers/STM32F1xx_HAL_Driver/Src/stm32f1xx_hal_dma.c **** 
 191              		.loc 1 201 23 is_stmt 0 view .LVU63
 192 0048 0B60     		str	r3, [r1]
 204:base/chip/Drivers/STM32F1xx_HAL_Driver/Src/stm32f1xx_hal_dma.c **** 
 193              		.loc 1 204 3 is_stmt 1 view .LVU64
 204:base/chip/Drivers/STM32F1xx_HAL_Driver/Src/stm32f1xx_hal_dma.c **** 
 194              		.loc 1 204 19 is_stmt 0 view .LVU65
 195 004a 0020     		movs	r0, #0
 196 004c 9063     		str	r0, [r2, #56]
 207:base/chip/Drivers/STM32F1xx_HAL_Driver/Src/stm32f1xx_hal_dma.c ****   /* Allocate lock resource and initialize it */
 197              		.loc 1 207 3 is_stmt 1 view .LVU66
 207:base/chip/Drivers/STM32F1xx_HAL_Driver/Src/stm32f1xx_hal_dma.c ****   /* Allocate lock resource and initialize it */
 198              		.loc 1 207 15 is_stmt 0 view .LVU67
 199 004e 0123     		movs	r3, #1
 200              	.LVL11:
 207:base/chip/Drivers/STM32F1xx_HAL_Driver/Src/stm32f1xx_hal_dma.c ****   /* Allocate lock resource and initialize it */
 201              		.loc 1 207 15 view .LVU68
 202 0050 82F82130 		strb	r3, [r2, #33]
 209:base/chip/Drivers/STM32F1xx_HAL_Driver/Src/stm32f1xx_hal_dma.c **** 
 203              		.loc 1 209 3 is_stmt 1 view .LVU69
 209:base/chip/Drivers/STM32F1xx_HAL_Driver/Src/stm32f1xx_hal_dma.c **** 
 204              		.loc 1 209 14 is_stmt 0 view .LVU70
 205 0054 82F82000 		strb	r0, [r2, #32]
 211:base/chip/Drivers/STM32F1xx_HAL_Driver/Src/stm32f1xx_hal_dma.c **** }
ARM GAS  /tmp/ccqu0Abp.s 			page 21


 206              		.loc 1 211 3 is_stmt 1 view .LVU71
 212:base/chip/Drivers/STM32F1xx_HAL_Driver/Src/stm32f1xx_hal_dma.c **** 
 207              		.loc 1 212 1 is_stmt 0 view .LVU72
 208 0058 10BC     		pop	{r4}
 209              	.LCFI4:
 210              		.cfi_restore 4
 211              		.cfi_def_cfa_offset 0
 212 005a 7047     		bx	lr
 213              	.LVL12:
 214              	.L8:
 150:base/chip/Drivers/STM32F1xx_HAL_Driver/Src/stm32f1xx_hal_dma.c ****   }
 215              		.loc 1 150 12 view .LVU73
 216 005c 0120     		movs	r0, #1
 217              	.LVL13:
 212:base/chip/Drivers/STM32F1xx_HAL_Driver/Src/stm32f1xx_hal_dma.c **** 
 218              		.loc 1 212 1 view .LVU74
 219 005e 7047     		bx	lr
 220              	.L14:
 221              		.align	2
 222              	.L13:
 223 0060 F8FFFDBF 		.word	-1073872904
 224 0064 CDCCCCCC 		.word	-858993459
 225 0068 00000240 		.word	1073872896
 226              		.cfi_endproc
 227              	.LFE65:
 229              		.section	.text.HAL_DMA_DeInit,"ax",%progbits
 230              		.align	1
 231              		.global	HAL_DMA_DeInit
 232              		.syntax unified
 233              		.thumb
 234              		.thumb_func
 235              		.fpu softvfp
 237              	HAL_DMA_DeInit:
 238              	.LVL14:
 239              	.LFB66:
 221:base/chip/Drivers/STM32F1xx_HAL_Driver/Src/stm32f1xx_hal_dma.c ****   /* Check the DMA handle allocation */
 240              		.loc 1 221 1 is_stmt 1 view -0
 241              		.cfi_startproc
 242              		@ args = 0, pretend = 0, frame = 0
 243              		@ frame_needed = 0, uses_anonymous_args = 0
 244              		@ link register save eliminated.
 223:base/chip/Drivers/STM32F1xx_HAL_Driver/Src/stm32f1xx_hal_dma.c ****   {
 245              		.loc 1 223 3 view .LVU76
 223:base/chip/Drivers/STM32F1xx_HAL_Driver/Src/stm32f1xx_hal_dma.c ****   {
 246              		.loc 1 223 5 is_stmt 0 view .LVU77
 247 0000 0028     		cmp	r0, #0
 248 0002 29D0     		beq	.L17
 221:base/chip/Drivers/STM32F1xx_HAL_Driver/Src/stm32f1xx_hal_dma.c ****   /* Check the DMA handle allocation */
 249              		.loc 1 221 1 view .LVU78
 250 0004 10B4     		push	{r4}
 251              	.LCFI5:
 252              		.cfi_def_cfa_offset 4
 253              		.cfi_offset 4, -4
 254 0006 0346     		mov	r3, r0
 229:base/chip/Drivers/STM32F1xx_HAL_Driver/Src/stm32f1xx_hal_dma.c **** 
 255              		.loc 1 229 3 is_stmt 1 view .LVU79
 232:base/chip/Drivers/STM32F1xx_HAL_Driver/Src/stm32f1xx_hal_dma.c **** 
ARM GAS  /tmp/ccqu0Abp.s 			page 22


 256              		.loc 1 232 3 view .LVU80
 257 0008 0168     		ldr	r1, [r0]
 258 000a 0A68     		ldr	r2, [r1]
 259 000c 22F00102 		bic	r2, r2, #1
 260 0010 0A60     		str	r2, [r1]
 235:base/chip/Drivers/STM32F1xx_HAL_Driver/Src/stm32f1xx_hal_dma.c **** 
 261              		.loc 1 235 3 view .LVU81
 235:base/chip/Drivers/STM32F1xx_HAL_Driver/Src/stm32f1xx_hal_dma.c **** 
 262              		.loc 1 235 7 is_stmt 0 view .LVU82
 263 0012 0268     		ldr	r2, [r0]
 235:base/chip/Drivers/STM32F1xx_HAL_Driver/Src/stm32f1xx_hal_dma.c **** 
 264              		.loc 1 235 24 view .LVU83
 265 0014 0020     		movs	r0, #0
 266              	.LVL15:
 235:base/chip/Drivers/STM32F1xx_HAL_Driver/Src/stm32f1xx_hal_dma.c **** 
 267              		.loc 1 235 24 view .LVU84
 268 0016 1060     		str	r0, [r2]
 238:base/chip/Drivers/STM32F1xx_HAL_Driver/Src/stm32f1xx_hal_dma.c **** 
 269              		.loc 1 238 3 is_stmt 1 view .LVU85
 238:base/chip/Drivers/STM32F1xx_HAL_Driver/Src/stm32f1xx_hal_dma.c **** 
 270              		.loc 1 238 7 is_stmt 0 view .LVU86
 271 0018 1A68     		ldr	r2, [r3]
 238:base/chip/Drivers/STM32F1xx_HAL_Driver/Src/stm32f1xx_hal_dma.c **** 
 272              		.loc 1 238 25 view .LVU87
 273 001a 5060     		str	r0, [r2, #4]
 241:base/chip/Drivers/STM32F1xx_HAL_Driver/Src/stm32f1xx_hal_dma.c **** 
 274              		.loc 1 241 3 is_stmt 1 view .LVU88
 241:base/chip/Drivers/STM32F1xx_HAL_Driver/Src/stm32f1xx_hal_dma.c **** 
 275              		.loc 1 241 7 is_stmt 0 view .LVU89
 276 001c 1A68     		ldr	r2, [r3]
 241:base/chip/Drivers/STM32F1xx_HAL_Driver/Src/stm32f1xx_hal_dma.c **** 
 277              		.loc 1 241 25 view .LVU90
 278 001e 9060     		str	r0, [r2, #8]
 244:base/chip/Drivers/STM32F1xx_HAL_Driver/Src/stm32f1xx_hal_dma.c **** 
 279              		.loc 1 244 3 is_stmt 1 view .LVU91
 244:base/chip/Drivers/STM32F1xx_HAL_Driver/Src/stm32f1xx_hal_dma.c **** 
 280              		.loc 1 244 7 is_stmt 0 view .LVU92
 281 0020 1A68     		ldr	r2, [r3]
 244:base/chip/Drivers/STM32F1xx_HAL_Driver/Src/stm32f1xx_hal_dma.c **** 
 282              		.loc 1 244 24 view .LVU93
 283 0022 D060     		str	r0, [r2, #12]
 262:base/chip/Drivers/STM32F1xx_HAL_Driver/Src/stm32f1xx_hal_dma.c ****   hdma->DmaBaseAddress = DMA1;
 284              		.loc 1 262 3 is_stmt 1 view .LVU94
 262:base/chip/Drivers/STM32F1xx_HAL_Driver/Src/stm32f1xx_hal_dma.c ****   hdma->DmaBaseAddress = DMA1;
 285              		.loc 1 262 40 is_stmt 0 view .LVU95
 286 0024 1968     		ldr	r1, [r3]
 262:base/chip/Drivers/STM32F1xx_HAL_Driver/Src/stm32f1xx_hal_dma.c ****   hdma->DmaBaseAddress = DMA1;
 287              		.loc 1 262 51 view .LVU96
 288 0026 0D4A     		ldr	r2, .L22
 289 0028 0A44     		add	r2, r2, r1
 262:base/chip/Drivers/STM32F1xx_HAL_Driver/Src/stm32f1xx_hal_dma.c ****   hdma->DmaBaseAddress = DMA1;
 290              		.loc 1 262 78 view .LVU97
 291 002a 0D49     		ldr	r1, .L22+4
 292 002c A1FB0212 		umull	r1, r2, r1, r2
 293 0030 1209     		lsrs	r2, r2, #4
 262:base/chip/Drivers/STM32F1xx_HAL_Driver/Src/stm32f1xx_hal_dma.c ****   hdma->DmaBaseAddress = DMA1;
 294              		.loc 1 262 133 view .LVU98
ARM GAS  /tmp/ccqu0Abp.s 			page 23


 295 0032 9200     		lsls	r2, r2, #2
 262:base/chip/Drivers/STM32F1xx_HAL_Driver/Src/stm32f1xx_hal_dma.c ****   hdma->DmaBaseAddress = DMA1;
 296              		.loc 1 262 22 view .LVU99
 297 0034 1A64     		str	r2, [r3, #64]
 263:base/chip/Drivers/STM32F1xx_HAL_Driver/Src/stm32f1xx_hal_dma.c **** #endif /* DMA2 */
 298              		.loc 1 263 3 is_stmt 1 view .LVU100
 263:base/chip/Drivers/STM32F1xx_HAL_Driver/Src/stm32f1xx_hal_dma.c **** #endif /* DMA2 */
 299              		.loc 1 263 24 is_stmt 0 view .LVU101
 300 0036 0B4C     		ldr	r4, .L22+8
 301 0038 DC63     		str	r4, [r3, #60]
 267:base/chip/Drivers/STM32F1xx_HAL_Driver/Src/stm32f1xx_hal_dma.c **** 
 302              		.loc 1 267 3 is_stmt 1 view .LVU102
 267:base/chip/Drivers/STM32F1xx_HAL_Driver/Src/stm32f1xx_hal_dma.c **** 
 303              		.loc 1 267 46 is_stmt 0 view .LVU103
 304 003a 0121     		movs	r1, #1
 305 003c 01FA02F2 		lsl	r2, r1, r2
 267:base/chip/Drivers/STM32F1xx_HAL_Driver/Src/stm32f1xx_hal_dma.c **** 
 306              		.loc 1 267 30 view .LVU104
 307 0040 6260     		str	r2, [r4, #4]
 270:base/chip/Drivers/STM32F1xx_HAL_Driver/Src/stm32f1xx_hal_dma.c ****   hdma->XferHalfCpltCallback = NULL;
 308              		.loc 1 270 3 is_stmt 1 view .LVU105
 270:base/chip/Drivers/STM32F1xx_HAL_Driver/Src/stm32f1xx_hal_dma.c ****   hdma->XferHalfCpltCallback = NULL;
 309              		.loc 1 270 26 is_stmt 0 view .LVU106
 310 0042 9862     		str	r0, [r3, #40]
 271:base/chip/Drivers/STM32F1xx_HAL_Driver/Src/stm32f1xx_hal_dma.c ****   hdma->XferErrorCallback = NULL;
 311              		.loc 1 271 3 is_stmt 1 view .LVU107
 271:base/chip/Drivers/STM32F1xx_HAL_Driver/Src/stm32f1xx_hal_dma.c ****   hdma->XferErrorCallback = NULL;
 312              		.loc 1 271 30 is_stmt 0 view .LVU108
 313 0044 D862     		str	r0, [r3, #44]
 272:base/chip/Drivers/STM32F1xx_HAL_Driver/Src/stm32f1xx_hal_dma.c ****   hdma->XferAbortCallback = NULL;
 314              		.loc 1 272 3 is_stmt 1 view .LVU109
 272:base/chip/Drivers/STM32F1xx_HAL_Driver/Src/stm32f1xx_hal_dma.c ****   hdma->XferAbortCallback = NULL;
 315              		.loc 1 272 27 is_stmt 0 view .LVU110
 316 0046 1863     		str	r0, [r3, #48]
 273:base/chip/Drivers/STM32F1xx_HAL_Driver/Src/stm32f1xx_hal_dma.c **** 
 317              		.loc 1 273 3 is_stmt 1 view .LVU111
 273:base/chip/Drivers/STM32F1xx_HAL_Driver/Src/stm32f1xx_hal_dma.c **** 
 318              		.loc 1 273 27 is_stmt 0 view .LVU112
 319 0048 5863     		str	r0, [r3, #52]
 276:base/chip/Drivers/STM32F1xx_HAL_Driver/Src/stm32f1xx_hal_dma.c **** 
 320              		.loc 1 276 3 is_stmt 1 view .LVU113
 276:base/chip/Drivers/STM32F1xx_HAL_Driver/Src/stm32f1xx_hal_dma.c **** 
 321              		.loc 1 276 19 is_stmt 0 view .LVU114
 322 004a 9863     		str	r0, [r3, #56]
 279:base/chip/Drivers/STM32F1xx_HAL_Driver/Src/stm32f1xx_hal_dma.c **** 
 323              		.loc 1 279 3 is_stmt 1 view .LVU115
 279:base/chip/Drivers/STM32F1xx_HAL_Driver/Src/stm32f1xx_hal_dma.c **** 
 324              		.loc 1 279 15 is_stmt 0 view .LVU116
 325 004c 83F82100 		strb	r0, [r3, #33]
 282:base/chip/Drivers/STM32F1xx_HAL_Driver/Src/stm32f1xx_hal_dma.c **** 
 326              		.loc 1 282 3 is_stmt 1 view .LVU117
 282:base/chip/Drivers/STM32F1xx_HAL_Driver/Src/stm32f1xx_hal_dma.c **** 
 327              		.loc 1 282 3 view .LVU118
 328 0050 83F82000 		strb	r0, [r3, #32]
 282:base/chip/Drivers/STM32F1xx_HAL_Driver/Src/stm32f1xx_hal_dma.c **** 
 329              		.loc 1 282 3 view .LVU119
 284:base/chip/Drivers/STM32F1xx_HAL_Driver/Src/stm32f1xx_hal_dma.c **** }
ARM GAS  /tmp/ccqu0Abp.s 			page 24


 330              		.loc 1 284 3 view .LVU120
 285:base/chip/Drivers/STM32F1xx_HAL_Driver/Src/stm32f1xx_hal_dma.c **** 
 331              		.loc 1 285 1 is_stmt 0 view .LVU121
 332 0054 10BC     		pop	{r4}
 333              	.LCFI6:
 334              		.cfi_restore 4
 335              		.cfi_def_cfa_offset 0
 336 0056 7047     		bx	lr
 337              	.LVL16:
 338              	.L17:
 225:base/chip/Drivers/STM32F1xx_HAL_Driver/Src/stm32f1xx_hal_dma.c ****   }
 339              		.loc 1 225 12 view .LVU122
 340 0058 0120     		movs	r0, #1
 341              	.LVL17:
 285:base/chip/Drivers/STM32F1xx_HAL_Driver/Src/stm32f1xx_hal_dma.c **** 
 342              		.loc 1 285 1 view .LVU123
 343 005a 7047     		bx	lr
 344              	.L23:
 345              		.align	2
 346              	.L22:
 347 005c F8FFFDBF 		.word	-1073872904
 348 0060 CDCCCCCC 		.word	-858993459
 349 0064 00000240 		.word	1073872896
 350              		.cfi_endproc
 351              	.LFE66:
 353              		.section	.text.HAL_DMA_Start,"ax",%progbits
 354              		.align	1
 355              		.global	HAL_DMA_Start
 356              		.syntax unified
 357              		.thumb
 358              		.thumb_func
 359              		.fpu softvfp
 361              	HAL_DMA_Start:
 362              	.LVL18:
 363              	.LFB67:
 320:base/chip/Drivers/STM32F1xx_HAL_Driver/Src/stm32f1xx_hal_dma.c ****   HAL_StatusTypeDef status = HAL_OK;
 364              		.loc 1 320 1 is_stmt 1 view -0
 365              		.cfi_startproc
 366              		@ args = 0, pretend = 0, frame = 0
 367              		@ frame_needed = 0, uses_anonymous_args = 0
 320:base/chip/Drivers/STM32F1xx_HAL_Driver/Src/stm32f1xx_hal_dma.c ****   HAL_StatusTypeDef status = HAL_OK;
 368              		.loc 1 320 1 is_stmt 0 view .LVU125
 369 0000 70B5     		push	{r4, r5, r6, lr}
 370              	.LCFI7:
 371              		.cfi_def_cfa_offset 16
 372              		.cfi_offset 4, -16
 373              		.cfi_offset 5, -12
 374              		.cfi_offset 6, -8
 375              		.cfi_offset 14, -4
 376 0002 0446     		mov	r4, r0
 321:base/chip/Drivers/STM32F1xx_HAL_Driver/Src/stm32f1xx_hal_dma.c **** 
 377              		.loc 1 321 3 is_stmt 1 view .LVU126
 378              	.LVL19:
 324:base/chip/Drivers/STM32F1xx_HAL_Driver/Src/stm32f1xx_hal_dma.c **** 
 379              		.loc 1 324 3 view .LVU127
 327:base/chip/Drivers/STM32F1xx_HAL_Driver/Src/stm32f1xx_hal_dma.c **** 
 380              		.loc 1 327 3 view .LVU128
ARM GAS  /tmp/ccqu0Abp.s 			page 25


 327:base/chip/Drivers/STM32F1xx_HAL_Driver/Src/stm32f1xx_hal_dma.c **** 
 381              		.loc 1 327 3 view .LVU129
 382 0004 90F82000 		ldrb	r0, [r0, #32]	@ zero_extendqisi2
 383              	.LVL20:
 327:base/chip/Drivers/STM32F1xx_HAL_Driver/Src/stm32f1xx_hal_dma.c **** 
 384              		.loc 1 327 3 is_stmt 0 view .LVU130
 385 0008 0128     		cmp	r0, #1
 386 000a 1FD0     		beq	.L27
 327:base/chip/Drivers/STM32F1xx_HAL_Driver/Src/stm32f1xx_hal_dma.c **** 
 387              		.loc 1 327 3 is_stmt 1 discriminator 2 view .LVU131
 388 000c 0120     		movs	r0, #1
 389 000e 84F82000 		strb	r0, [r4, #32]
 327:base/chip/Drivers/STM32F1xx_HAL_Driver/Src/stm32f1xx_hal_dma.c **** 
 390              		.loc 1 327 3 discriminator 2 view .LVU132
 329:base/chip/Drivers/STM32F1xx_HAL_Driver/Src/stm32f1xx_hal_dma.c ****   {
 391              		.loc 1 329 3 discriminator 2 view .LVU133
 329:base/chip/Drivers/STM32F1xx_HAL_Driver/Src/stm32f1xx_hal_dma.c ****   {
 392              		.loc 1 329 33 is_stmt 0 discriminator 2 view .LVU134
 393 0012 94F82100 		ldrb	r0, [r4, #33]	@ zero_extendqisi2
 329:base/chip/Drivers/STM32F1xx_HAL_Driver/Src/stm32f1xx_hal_dma.c ****   {
 394              		.loc 1 329 5 discriminator 2 view .LVU135
 395 0016 0128     		cmp	r0, #1
 396 0018 04D0     		beq	.L29
 347:base/chip/Drivers/STM32F1xx_HAL_Driver/Src/stm32f1xx_hal_dma.c ****    status = HAL_BUSY;
 397              		.loc 1 347 4 is_stmt 1 view .LVU136
 347:base/chip/Drivers/STM32F1xx_HAL_Driver/Src/stm32f1xx_hal_dma.c ****    status = HAL_BUSY;
 398              		.loc 1 347 4 view .LVU137
 399 001a 0023     		movs	r3, #0
 400              	.LVL21:
 347:base/chip/Drivers/STM32F1xx_HAL_Driver/Src/stm32f1xx_hal_dma.c ****    status = HAL_BUSY;
 401              		.loc 1 347 4 is_stmt 0 view .LVU138
 402 001c 84F82030 		strb	r3, [r4, #32]
 347:base/chip/Drivers/STM32F1xx_HAL_Driver/Src/stm32f1xx_hal_dma.c ****    status = HAL_BUSY;
 403              		.loc 1 347 4 is_stmt 1 view .LVU139
 348:base/chip/Drivers/STM32F1xx_HAL_Driver/Src/stm32f1xx_hal_dma.c ****   }  
 404              		.loc 1 348 4 view .LVU140
 405              	.LVL22:
 348:base/chip/Drivers/STM32F1xx_HAL_Driver/Src/stm32f1xx_hal_dma.c ****   }  
 406              		.loc 1 348 11 is_stmt 0 view .LVU141
 407 0020 0220     		movs	r0, #2
 408              	.LVL23:
 409              	.L25:
 351:base/chip/Drivers/STM32F1xx_HAL_Driver/Src/stm32f1xx_hal_dma.c **** 
 410              		.loc 1 351 1 view .LVU142
 411 0022 70BD     		pop	{r4, r5, r6, pc}
 412              	.LVL24:
 413              	.L29:
 332:base/chip/Drivers/STM32F1xx_HAL_Driver/Src/stm32f1xx_hal_dma.c ****     hdma->ErrorCode = HAL_DMA_ERROR_NONE;
 414              		.loc 1 332 5 is_stmt 1 view .LVU143
 332:base/chip/Drivers/STM32F1xx_HAL_Driver/Src/stm32f1xx_hal_dma.c ****     hdma->ErrorCode = HAL_DMA_ERROR_NONE;
 415              		.loc 1 332 17 is_stmt 0 view .LVU144
 416 0024 0220     		movs	r0, #2
 417 0026 84F82100 		strb	r0, [r4, #33]
 333:base/chip/Drivers/STM32F1xx_HAL_Driver/Src/stm32f1xx_hal_dma.c ****             
 418              		.loc 1 333 5 is_stmt 1 view .LVU145
 333:base/chip/Drivers/STM32F1xx_HAL_Driver/Src/stm32f1xx_hal_dma.c ****             
 419              		.loc 1 333 21 is_stmt 0 view .LVU146
ARM GAS  /tmp/ccqu0Abp.s 			page 26


 420 002a 0025     		movs	r5, #0
 421 002c A563     		str	r5, [r4, #56]
 336:base/chip/Drivers/STM32F1xx_HAL_Driver/Src/stm32f1xx_hal_dma.c ****     
 422              		.loc 1 336 5 is_stmt 1 view .LVU147
 423 002e 2668     		ldr	r6, [r4]
 424 0030 3068     		ldr	r0, [r6]
 425 0032 20F00100 		bic	r0, r0, #1
 426 0036 3060     		str	r0, [r6]
 339:base/chip/Drivers/STM32F1xx_HAL_Driver/Src/stm32f1xx_hal_dma.c ****     
 427              		.loc 1 339 5 view .LVU148
 428 0038 2046     		mov	r0, r4
 429 003a FFF7FEFF 		bl	DMA_SetConfig
 430              	.LVL25:
 342:base/chip/Drivers/STM32F1xx_HAL_Driver/Src/stm32f1xx_hal_dma.c ****   }
 431              		.loc 1 342 5 view .LVU149
 432 003e 2268     		ldr	r2, [r4]
 433 0040 1368     		ldr	r3, [r2]
 434 0042 43F00103 		orr	r3, r3, #1
 435 0046 1360     		str	r3, [r2]
 321:base/chip/Drivers/STM32F1xx_HAL_Driver/Src/stm32f1xx_hal_dma.c **** 
 436              		.loc 1 321 21 is_stmt 0 view .LVU150
 437 0048 2846     		mov	r0, r5
 438 004a EAE7     		b	.L25
 439              	.LVL26:
 440              	.L27:
 327:base/chip/Drivers/STM32F1xx_HAL_Driver/Src/stm32f1xx_hal_dma.c **** 
 441              		.loc 1 327 3 view .LVU151
 442 004c 0220     		movs	r0, #2
 443 004e E8E7     		b	.L25
 444              		.cfi_endproc
 445              	.LFE67:
 447              		.section	.text.HAL_DMA_Start_IT,"ax",%progbits
 448              		.align	1
 449              		.global	HAL_DMA_Start_IT
 450              		.syntax unified
 451              		.thumb
 452              		.thumb_func
 453              		.fpu softvfp
 455              	HAL_DMA_Start_IT:
 456              	.LVL27:
 457              	.LFB68:
 363:base/chip/Drivers/STM32F1xx_HAL_Driver/Src/stm32f1xx_hal_dma.c ****   HAL_StatusTypeDef status = HAL_OK;
 458              		.loc 1 363 1 is_stmt 1 view -0
 459              		.cfi_startproc
 460              		@ args = 0, pretend = 0, frame = 0
 461              		@ frame_needed = 0, uses_anonymous_args = 0
 363:base/chip/Drivers/STM32F1xx_HAL_Driver/Src/stm32f1xx_hal_dma.c ****   HAL_StatusTypeDef status = HAL_OK;
 462              		.loc 1 363 1 is_stmt 0 view .LVU153
 463 0000 38B5     		push	{r3, r4, r5, lr}
 464              	.LCFI8:
 465              		.cfi_def_cfa_offset 16
 466              		.cfi_offset 3, -16
 467              		.cfi_offset 4, -12
 468              		.cfi_offset 5, -8
 469              		.cfi_offset 14, -4
 470 0002 0446     		mov	r4, r0
 364:base/chip/Drivers/STM32F1xx_HAL_Driver/Src/stm32f1xx_hal_dma.c **** 
ARM GAS  /tmp/ccqu0Abp.s 			page 27


 471              		.loc 1 364 3 is_stmt 1 view .LVU154
 472              	.LVL28:
 367:base/chip/Drivers/STM32F1xx_HAL_Driver/Src/stm32f1xx_hal_dma.c **** 
 473              		.loc 1 367 3 view .LVU155
 370:base/chip/Drivers/STM32F1xx_HAL_Driver/Src/stm32f1xx_hal_dma.c ****   
 474              		.loc 1 370 3 view .LVU156
 370:base/chip/Drivers/STM32F1xx_HAL_Driver/Src/stm32f1xx_hal_dma.c ****   
 475              		.loc 1 370 3 view .LVU157
 476 0004 90F82000 		ldrb	r0, [r0, #32]	@ zero_extendqisi2
 477              	.LVL29:
 370:base/chip/Drivers/STM32F1xx_HAL_Driver/Src/stm32f1xx_hal_dma.c ****   
 478              		.loc 1 370 3 is_stmt 0 view .LVU158
 479 0008 0128     		cmp	r0, #1
 480 000a 31D0     		beq	.L35
 370:base/chip/Drivers/STM32F1xx_HAL_Driver/Src/stm32f1xx_hal_dma.c ****   
 481              		.loc 1 370 3 is_stmt 1 discriminator 2 view .LVU159
 482 000c 0120     		movs	r0, #1
 483 000e 84F82000 		strb	r0, [r4, #32]
 370:base/chip/Drivers/STM32F1xx_HAL_Driver/Src/stm32f1xx_hal_dma.c ****   
 484              		.loc 1 370 3 discriminator 2 view .LVU160
 372:base/chip/Drivers/STM32F1xx_HAL_Driver/Src/stm32f1xx_hal_dma.c ****   {
 485              		.loc 1 372 3 discriminator 2 view .LVU161
 372:base/chip/Drivers/STM32F1xx_HAL_Driver/Src/stm32f1xx_hal_dma.c ****   {
 486              		.loc 1 372 33 is_stmt 0 discriminator 2 view .LVU162
 487 0012 94F82100 		ldrb	r0, [r4, #33]	@ zero_extendqisi2
 372:base/chip/Drivers/STM32F1xx_HAL_Driver/Src/stm32f1xx_hal_dma.c ****   {
 488              		.loc 1 372 5 discriminator 2 view .LVU163
 489 0016 0128     		cmp	r0, #1
 490 0018 04D0     		beq	.L37
 402:base/chip/Drivers/STM32F1xx_HAL_Driver/Src/stm32f1xx_hal_dma.c **** 
 491              		.loc 1 402 5 is_stmt 1 view .LVU164
 402:base/chip/Drivers/STM32F1xx_HAL_Driver/Src/stm32f1xx_hal_dma.c **** 
 492              		.loc 1 402 5 view .LVU165
 493 001a 0023     		movs	r3, #0
 494              	.LVL30:
 402:base/chip/Drivers/STM32F1xx_HAL_Driver/Src/stm32f1xx_hal_dma.c **** 
 495              		.loc 1 402 5 is_stmt 0 view .LVU166
 496 001c 84F82030 		strb	r3, [r4, #32]
 402:base/chip/Drivers/STM32F1xx_HAL_Driver/Src/stm32f1xx_hal_dma.c **** 
 497              		.loc 1 402 5 is_stmt 1 view .LVU167
 405:base/chip/Drivers/STM32F1xx_HAL_Driver/Src/stm32f1xx_hal_dma.c ****   }    
 498              		.loc 1 405 5 view .LVU168
 499              	.LVL31:
 405:base/chip/Drivers/STM32F1xx_HAL_Driver/Src/stm32f1xx_hal_dma.c ****   }    
 500              		.loc 1 405 12 is_stmt 0 view .LVU169
 501 0020 0220     		movs	r0, #2
 502              	.LVL32:
 503              	.L31:
 408:base/chip/Drivers/STM32F1xx_HAL_Driver/Src/stm32f1xx_hal_dma.c **** 
 504              		.loc 1 408 1 view .LVU170
 505 0022 38BD     		pop	{r3, r4, r5, pc}
 506              	.LVL33:
 507              	.L37:
 375:base/chip/Drivers/STM32F1xx_HAL_Driver/Src/stm32f1xx_hal_dma.c ****     hdma->ErrorCode = HAL_DMA_ERROR_NONE;
 508              		.loc 1 375 5 is_stmt 1 view .LVU171
 375:base/chip/Drivers/STM32F1xx_HAL_Driver/Src/stm32f1xx_hal_dma.c ****     hdma->ErrorCode = HAL_DMA_ERROR_NONE;
 509              		.loc 1 375 17 is_stmt 0 view .LVU172
ARM GAS  /tmp/ccqu0Abp.s 			page 28


 510 0024 0220     		movs	r0, #2
 511 0026 84F82100 		strb	r0, [r4, #33]
 376:base/chip/Drivers/STM32F1xx_HAL_Driver/Src/stm32f1xx_hal_dma.c ****     
 512              		.loc 1 376 5 is_stmt 1 view .LVU173
 376:base/chip/Drivers/STM32F1xx_HAL_Driver/Src/stm32f1xx_hal_dma.c ****     
 513              		.loc 1 376 21 is_stmt 0 view .LVU174
 514 002a 0020     		movs	r0, #0
 515 002c A063     		str	r0, [r4, #56]
 379:base/chip/Drivers/STM32F1xx_HAL_Driver/Src/stm32f1xx_hal_dma.c ****     
 516              		.loc 1 379 5 is_stmt 1 view .LVU175
 517 002e 2568     		ldr	r5, [r4]
 518 0030 2868     		ldr	r0, [r5]
 519 0032 20F00100 		bic	r0, r0, #1
 520 0036 2860     		str	r0, [r5]
 382:base/chip/Drivers/STM32F1xx_HAL_Driver/Src/stm32f1xx_hal_dma.c ****     
 521              		.loc 1 382 5 view .LVU176
 522 0038 2046     		mov	r0, r4
 523 003a FFF7FEFF 		bl	DMA_SetConfig
 524              	.LVL34:
 386:base/chip/Drivers/STM32F1xx_HAL_Driver/Src/stm32f1xx_hal_dma.c ****     {
 525              		.loc 1 386 5 view .LVU177
 386:base/chip/Drivers/STM32F1xx_HAL_Driver/Src/stm32f1xx_hal_dma.c ****     {
 526              		.loc 1 386 20 is_stmt 0 view .LVU178
 527 003e E36A     		ldr	r3, [r4, #44]
 386:base/chip/Drivers/STM32F1xx_HAL_Driver/Src/stm32f1xx_hal_dma.c ****     {
 528              		.loc 1 386 7 view .LVU179
 529 0040 5BB1     		cbz	r3, .L33
 389:base/chip/Drivers/STM32F1xx_HAL_Driver/Src/stm32f1xx_hal_dma.c ****     }
 530              		.loc 1 389 7 is_stmt 1 view .LVU180
 531 0042 2268     		ldr	r2, [r4]
 532 0044 1368     		ldr	r3, [r2]
 533 0046 43F00E03 		orr	r3, r3, #14
 534 004a 1360     		str	r3, [r2]
 535              	.L34:
 397:base/chip/Drivers/STM32F1xx_HAL_Driver/Src/stm32f1xx_hal_dma.c ****   }
 536              		.loc 1 397 5 view .LVU181
 537 004c 2268     		ldr	r2, [r4]
 538 004e 1368     		ldr	r3, [r2]
 539 0050 43F00103 		orr	r3, r3, #1
 540 0054 1360     		str	r3, [r2]
 364:base/chip/Drivers/STM32F1xx_HAL_Driver/Src/stm32f1xx_hal_dma.c **** 
 541              		.loc 1 364 21 is_stmt 0 view .LVU182
 542 0056 0020     		movs	r0, #0
 543 0058 E3E7     		b	.L31
 544              	.L33:
 393:base/chip/Drivers/STM32F1xx_HAL_Driver/Src/stm32f1xx_hal_dma.c ****       __HAL_DMA_ENABLE_IT(hdma, (DMA_IT_TC | DMA_IT_TE));
 545              		.loc 1 393 7 is_stmt 1 view .LVU183
 546 005a 2268     		ldr	r2, [r4]
 547 005c 1368     		ldr	r3, [r2]
 548 005e 23F00403 		bic	r3, r3, #4
 549 0062 1360     		str	r3, [r2]
 394:base/chip/Drivers/STM32F1xx_HAL_Driver/Src/stm32f1xx_hal_dma.c ****     }
 550              		.loc 1 394 7 view .LVU184
 551 0064 2268     		ldr	r2, [r4]
 552 0066 1368     		ldr	r3, [r2]
 553 0068 43F00A03 		orr	r3, r3, #10
 554 006c 1360     		str	r3, [r2]
ARM GAS  /tmp/ccqu0Abp.s 			page 29


 555 006e EDE7     		b	.L34
 556              	.LVL35:
 557              	.L35:
 370:base/chip/Drivers/STM32F1xx_HAL_Driver/Src/stm32f1xx_hal_dma.c ****   
 558              		.loc 1 370 3 is_stmt 0 view .LVU185
 559 0070 0220     		movs	r0, #2
 560 0072 D6E7     		b	.L31
 561              		.cfi_endproc
 562              	.LFE68:
 564              		.section	.text.HAL_DMA_Abort,"ax",%progbits
 565              		.align	1
 566              		.global	HAL_DMA_Abort
 567              		.syntax unified
 568              		.thumb
 569              		.thumb_func
 570              		.fpu softvfp
 572              	HAL_DMA_Abort:
 573              	.LVL36:
 574              	.LFB69:
 417:base/chip/Drivers/STM32F1xx_HAL_Driver/Src/stm32f1xx_hal_dma.c ****   HAL_StatusTypeDef status = HAL_OK;
 575              		.loc 1 417 1 is_stmt 1 view -0
 576              		.cfi_startproc
 577              		@ args = 0, pretend = 0, frame = 0
 578              		@ frame_needed = 0, uses_anonymous_args = 0
 579              		@ link register save eliminated.
 417:base/chip/Drivers/STM32F1xx_HAL_Driver/Src/stm32f1xx_hal_dma.c ****   HAL_StatusTypeDef status = HAL_OK;
 580              		.loc 1 417 1 is_stmt 0 view .LVU187
 581 0000 0346     		mov	r3, r0
 418:base/chip/Drivers/STM32F1xx_HAL_Driver/Src/stm32f1xx_hal_dma.c ****   
 582              		.loc 1 418 3 is_stmt 1 view .LVU188
 583              	.LVL37:
 420:base/chip/Drivers/STM32F1xx_HAL_Driver/Src/stm32f1xx_hal_dma.c ****   {
 584              		.loc 1 420 3 view .LVU189
 420:base/chip/Drivers/STM32F1xx_HAL_Driver/Src/stm32f1xx_hal_dma.c ****   {
 585              		.loc 1 420 10 is_stmt 0 view .LVU190
 586 0002 90F82120 		ldrb	r2, [r0, #33]	@ zero_extendqisi2
 420:base/chip/Drivers/STM32F1xx_HAL_Driver/Src/stm32f1xx_hal_dma.c ****   {
 587              		.loc 1 420 5 view .LVU191
 588 0006 022A     		cmp	r2, #2
 589 0008 06D0     		beq	.L39
 423:base/chip/Drivers/STM32F1xx_HAL_Driver/Src/stm32f1xx_hal_dma.c ****     
 590              		.loc 1 423 5 is_stmt 1 view .LVU192
 423:base/chip/Drivers/STM32F1xx_HAL_Driver/Src/stm32f1xx_hal_dma.c ****     
 591              		.loc 1 423 21 is_stmt 0 view .LVU193
 592 000a 0422     		movs	r2, #4
 593 000c 8263     		str	r2, [r0, #56]
 426:base/chip/Drivers/STM32F1xx_HAL_Driver/Src/stm32f1xx_hal_dma.c ****     
 594              		.loc 1 426 5 is_stmt 1 view .LVU194
 426:base/chip/Drivers/STM32F1xx_HAL_Driver/Src/stm32f1xx_hal_dma.c ****     
 595              		.loc 1 426 5 view .LVU195
 596 000e 0022     		movs	r2, #0
 597 0010 80F82020 		strb	r2, [r0, #32]
 426:base/chip/Drivers/STM32F1xx_HAL_Driver/Src/stm32f1xx_hal_dma.c ****     
 598              		.loc 1 426 5 view .LVU196
 428:base/chip/Drivers/STM32F1xx_HAL_Driver/Src/stm32f1xx_hal_dma.c ****   }
 599              		.loc 1 428 5 view .LVU197
 428:base/chip/Drivers/STM32F1xx_HAL_Driver/Src/stm32f1xx_hal_dma.c ****   }
ARM GAS  /tmp/ccqu0Abp.s 			page 30


 600              		.loc 1 428 12 is_stmt 0 view .LVU198
 601 0014 0120     		movs	r0, #1
 602              	.LVL38:
 428:base/chip/Drivers/STM32F1xx_HAL_Driver/Src/stm32f1xx_hal_dma.c ****   }
 603              		.loc 1 428 12 view .LVU199
 604 0016 7047     		bx	lr
 605              	.LVL39:
 606              	.L39:
 434:base/chip/Drivers/STM32F1xx_HAL_Driver/Src/stm32f1xx_hal_dma.c ****       
 607              		.loc 1 434 5 is_stmt 1 view .LVU200
 608 0018 0168     		ldr	r1, [r0]
 609 001a 0A68     		ldr	r2, [r1]
 610 001c 22F00E02 		bic	r2, r2, #14
 611 0020 0A60     		str	r2, [r1]
 437:base/chip/Drivers/STM32F1xx_HAL_Driver/Src/stm32f1xx_hal_dma.c ****       
 612              		.loc 1 437 5 view .LVU201
 613 0022 0168     		ldr	r1, [r0]
 614 0024 0A68     		ldr	r2, [r1]
 615 0026 22F00102 		bic	r2, r2, #1
 616 002a 0A60     		str	r2, [r1]
 440:base/chip/Drivers/STM32F1xx_HAL_Driver/Src/stm32f1xx_hal_dma.c ****   }
 617              		.loc 1 440 5 view .LVU202
 440:base/chip/Drivers/STM32F1xx_HAL_Driver/Src/stm32f1xx_hal_dma.c ****   }
 618              		.loc 1 440 55 is_stmt 0 view .LVU203
 619 002c 026C     		ldr	r2, [r0, #64]
 440:base/chip/Drivers/STM32F1xx_HAL_Driver/Src/stm32f1xx_hal_dma.c ****   }
 620              		.loc 1 440 9 view .LVU204
 621 002e C06B     		ldr	r0, [r0, #60]
 622              	.LVL40:
 440:base/chip/Drivers/STM32F1xx_HAL_Driver/Src/stm32f1xx_hal_dma.c ****   }
 623              		.loc 1 440 48 view .LVU205
 624 0030 0121     		movs	r1, #1
 625 0032 01FA02F2 		lsl	r2, r1, r2
 440:base/chip/Drivers/STM32F1xx_HAL_Driver/Src/stm32f1xx_hal_dma.c ****   }
 626              		.loc 1 440 32 view .LVU206
 627 0036 4260     		str	r2, [r0, #4]
 443:base/chip/Drivers/STM32F1xx_HAL_Driver/Src/stm32f1xx_hal_dma.c **** 
 628              		.loc 1 443 3 is_stmt 1 view .LVU207
 443:base/chip/Drivers/STM32F1xx_HAL_Driver/Src/stm32f1xx_hal_dma.c **** 
 629              		.loc 1 443 15 is_stmt 0 view .LVU208
 630 0038 83F82110 		strb	r1, [r3, #33]
 446:base/chip/Drivers/STM32F1xx_HAL_Driver/Src/stm32f1xx_hal_dma.c ****   
 631              		.loc 1 446 3 is_stmt 1 view .LVU209
 446:base/chip/Drivers/STM32F1xx_HAL_Driver/Src/stm32f1xx_hal_dma.c ****   
 632              		.loc 1 446 3 view .LVU210
 633 003c 0020     		movs	r0, #0
 634 003e 83F82000 		strb	r0, [r3, #32]
 446:base/chip/Drivers/STM32F1xx_HAL_Driver/Src/stm32f1xx_hal_dma.c ****   
 635              		.loc 1 446 3 view .LVU211
 448:base/chip/Drivers/STM32F1xx_HAL_Driver/Src/stm32f1xx_hal_dma.c **** }
 636              		.loc 1 448 3 view .LVU212
 449:base/chip/Drivers/STM32F1xx_HAL_Driver/Src/stm32f1xx_hal_dma.c **** 
 637              		.loc 1 449 1 is_stmt 0 view .LVU213
 638 0042 7047     		bx	lr
 639              		.cfi_endproc
 640              	.LFE69:
 642              		.section	.text.HAL_DMA_Abort_IT,"ax",%progbits
ARM GAS  /tmp/ccqu0Abp.s 			page 31


 643              		.align	1
 644              		.global	HAL_DMA_Abort_IT
 645              		.syntax unified
 646              		.thumb
 647              		.thumb_func
 648              		.fpu softvfp
 650              	HAL_DMA_Abort_IT:
 651              	.LVL41:
 652              	.LFB70:
 458:base/chip/Drivers/STM32F1xx_HAL_Driver/Src/stm32f1xx_hal_dma.c ****   HAL_StatusTypeDef status = HAL_OK;
 653              		.loc 1 458 1 is_stmt 1 view -0
 654              		.cfi_startproc
 655              		@ args = 0, pretend = 0, frame = 0
 656              		@ frame_needed = 0, uses_anonymous_args = 0
 458:base/chip/Drivers/STM32F1xx_HAL_Driver/Src/stm32f1xx_hal_dma.c ****   HAL_StatusTypeDef status = HAL_OK;
 657              		.loc 1 458 1 is_stmt 0 view .LVU215
 658 0000 08B5     		push	{r3, lr}
 659              	.LCFI9:
 660              		.cfi_def_cfa_offset 8
 661              		.cfi_offset 3, -8
 662              		.cfi_offset 14, -4
 459:base/chip/Drivers/STM32F1xx_HAL_Driver/Src/stm32f1xx_hal_dma.c ****   
 663              		.loc 1 459 3 is_stmt 1 view .LVU216
 664              	.LVL42:
 461:base/chip/Drivers/STM32F1xx_HAL_Driver/Src/stm32f1xx_hal_dma.c ****   {
 665              		.loc 1 461 3 view .LVU217
 461:base/chip/Drivers/STM32F1xx_HAL_Driver/Src/stm32f1xx_hal_dma.c ****   {
 666              		.loc 1 461 32 is_stmt 0 view .LVU218
 667 0002 90F82130 		ldrb	r3, [r0, #33]	@ zero_extendqisi2
 461:base/chip/Drivers/STM32F1xx_HAL_Driver/Src/stm32f1xx_hal_dma.c ****   {
 668              		.loc 1 461 5 view .LVU219
 669 0006 022B     		cmp	r3, #2
 670 0008 03D0     		beq	.L42
 464:base/chip/Drivers/STM32F1xx_HAL_Driver/Src/stm32f1xx_hal_dma.c ****         
 671              		.loc 1 464 5 is_stmt 1 view .LVU220
 464:base/chip/Drivers/STM32F1xx_HAL_Driver/Src/stm32f1xx_hal_dma.c ****         
 672              		.loc 1 464 21 is_stmt 0 view .LVU221
 673 000a 0423     		movs	r3, #4
 674 000c 8363     		str	r3, [r0, #56]
 466:base/chip/Drivers/STM32F1xx_HAL_Driver/Src/stm32f1xx_hal_dma.c ****   }
 675              		.loc 1 466 5 is_stmt 1 view .LVU222
 676              	.LVL43:
 466:base/chip/Drivers/STM32F1xx_HAL_Driver/Src/stm32f1xx_hal_dma.c ****   }
 677              		.loc 1 466 12 is_stmt 0 view .LVU223
 678 000e 0120     		movs	r0, #1
 679              	.LVL44:
 680              	.L43:
 491:base/chip/Drivers/STM32F1xx_HAL_Driver/Src/stm32f1xx_hal_dma.c **** }
 681              		.loc 1 491 3 is_stmt 1 view .LVU224
 492:base/chip/Drivers/STM32F1xx_HAL_Driver/Src/stm32f1xx_hal_dma.c **** 
 682              		.loc 1 492 1 is_stmt 0 view .LVU225
 683 0010 08BD     		pop	{r3, pc}
 684              	.LVL45:
 685              	.L42:
 471:base/chip/Drivers/STM32F1xx_HAL_Driver/Src/stm32f1xx_hal_dma.c **** 
 686              		.loc 1 471 5 is_stmt 1 view .LVU226
 687 0012 0268     		ldr	r2, [r0]
ARM GAS  /tmp/ccqu0Abp.s 			page 32


 688 0014 1368     		ldr	r3, [r2]
 689 0016 23F00E03 		bic	r3, r3, #14
 690 001a 1360     		str	r3, [r2]
 474:base/chip/Drivers/STM32F1xx_HAL_Driver/Src/stm32f1xx_hal_dma.c **** 
 691              		.loc 1 474 5 view .LVU227
 692 001c 0268     		ldr	r2, [r0]
 693 001e 1368     		ldr	r3, [r2]
 694 0020 23F00103 		bic	r3, r3, #1
 695 0024 1360     		str	r3, [r2]
 477:base/chip/Drivers/STM32F1xx_HAL_Driver/Src/stm32f1xx_hal_dma.c **** 
 696              		.loc 1 477 5 view .LVU228
 697 0026 0368     		ldr	r3, [r0]
 698 0028 194A     		ldr	r2, .L54
 699 002a 9342     		cmp	r3, r2
 700 002c 14D0     		beq	.L45
 477:base/chip/Drivers/STM32F1xx_HAL_Driver/Src/stm32f1xx_hal_dma.c **** 
 701              		.loc 1 477 5 is_stmt 0 discriminator 1 view .LVU229
 702 002e 1432     		adds	r2, r2, #20
 703 0030 9342     		cmp	r3, r2
 704 0032 1FD0     		beq	.L46
 477:base/chip/Drivers/STM32F1xx_HAL_Driver/Src/stm32f1xx_hal_dma.c **** 
 705              		.loc 1 477 5 discriminator 3 view .LVU230
 706 0034 1432     		adds	r2, r2, #20
 707 0036 9342     		cmp	r3, r2
 708 0038 1ED0     		beq	.L47
 477:base/chip/Drivers/STM32F1xx_HAL_Driver/Src/stm32f1xx_hal_dma.c **** 
 709              		.loc 1 477 5 discriminator 5 view .LVU231
 710 003a 1432     		adds	r2, r2, #20
 711 003c 9342     		cmp	r3, r2
 712 003e 1ED0     		beq	.L48
 477:base/chip/Drivers/STM32F1xx_HAL_Driver/Src/stm32f1xx_hal_dma.c **** 
 713              		.loc 1 477 5 discriminator 7 view .LVU232
 714 0040 1432     		adds	r2, r2, #20
 715 0042 9342     		cmp	r3, r2
 716 0044 1ED0     		beq	.L49
 477:base/chip/Drivers/STM32F1xx_HAL_Driver/Src/stm32f1xx_hal_dma.c **** 
 717              		.loc 1 477 5 discriminator 9 view .LVU233
 718 0046 1432     		adds	r2, r2, #20
 719 0048 9342     		cmp	r3, r2
 720 004a 02D0     		beq	.L53
 477:base/chip/Drivers/STM32F1xx_HAL_Driver/Src/stm32f1xx_hal_dma.c **** 
 721              		.loc 1 477 5 view .LVU234
 722 004c 4FF08072 		mov	r2, #16777216
 723 0050 03E0     		b	.L44
 724              	.L53:
 725 0052 4FF48012 		mov	r2, #1048576
 726 0056 00E0     		b	.L44
 727              	.L45:
 728 0058 0122     		movs	r2, #1
 729              	.L44:
 477:base/chip/Drivers/STM32F1xx_HAL_Driver/Src/stm32f1xx_hal_dma.c **** 
 730              		.loc 1 477 5 discriminator 24 view .LVU235
 731 005a 0E4B     		ldr	r3, .L54+4
 732 005c 5A60     		str	r2, [r3, #4]
 480:base/chip/Drivers/STM32F1xx_HAL_Driver/Src/stm32f1xx_hal_dma.c **** 
 733              		.loc 1 480 5 is_stmt 1 discriminator 24 view .LVU236
 480:base/chip/Drivers/STM32F1xx_HAL_Driver/Src/stm32f1xx_hal_dma.c **** 
ARM GAS  /tmp/ccqu0Abp.s 			page 33


 734              		.loc 1 480 17 is_stmt 0 discriminator 24 view .LVU237
 735 005e 0123     		movs	r3, #1
 736 0060 80F82130 		strb	r3, [r0, #33]
 483:base/chip/Drivers/STM32F1xx_HAL_Driver/Src/stm32f1xx_hal_dma.c **** 
 737              		.loc 1 483 5 is_stmt 1 discriminator 24 view .LVU238
 483:base/chip/Drivers/STM32F1xx_HAL_Driver/Src/stm32f1xx_hal_dma.c **** 
 738              		.loc 1 483 5 discriminator 24 view .LVU239
 739 0064 0023     		movs	r3, #0
 740 0066 80F82030 		strb	r3, [r0, #32]
 483:base/chip/Drivers/STM32F1xx_HAL_Driver/Src/stm32f1xx_hal_dma.c **** 
 741              		.loc 1 483 5 discriminator 24 view .LVU240
 486:base/chip/Drivers/STM32F1xx_HAL_Driver/Src/stm32f1xx_hal_dma.c ****     {
 742              		.loc 1 486 5 discriminator 24 view .LVU241
 486:base/chip/Drivers/STM32F1xx_HAL_Driver/Src/stm32f1xx_hal_dma.c ****     {
 743              		.loc 1 486 12 is_stmt 0 discriminator 24 view .LVU242
 744 006a 436B     		ldr	r3, [r0, #52]
 486:base/chip/Drivers/STM32F1xx_HAL_Driver/Src/stm32f1xx_hal_dma.c ****     {
 745              		.loc 1 486 7 discriminator 24 view .LVU243
 746 006c 6BB1     		cbz	r3, .L51
 488:base/chip/Drivers/STM32F1xx_HAL_Driver/Src/stm32f1xx_hal_dma.c ****     } 
 747              		.loc 1 488 7 is_stmt 1 view .LVU244
 748 006e 9847     		blx	r3
 749              	.LVL46:
 459:base/chip/Drivers/STM32F1xx_HAL_Driver/Src/stm32f1xx_hal_dma.c ****   
 750              		.loc 1 459 21 is_stmt 0 view .LVU245
 751 0070 0020     		movs	r0, #0
 752 0072 CDE7     		b	.L43
 753              	.LVL47:
 754              	.L46:
 477:base/chip/Drivers/STM32F1xx_HAL_Driver/Src/stm32f1xx_hal_dma.c **** 
 755              		.loc 1 477 5 view .LVU246
 756 0074 1022     		movs	r2, #16
 757 0076 F0E7     		b	.L44
 758              	.L47:
 759 0078 4FF48072 		mov	r2, #256
 760 007c EDE7     		b	.L44
 761              	.L48:
 762 007e 4FF48052 		mov	r2, #4096
 763 0082 EAE7     		b	.L44
 764              	.L49:
 765 0084 4FF48032 		mov	r2, #65536
 766 0088 E7E7     		b	.L44
 767              	.L51:
 459:base/chip/Drivers/STM32F1xx_HAL_Driver/Src/stm32f1xx_hal_dma.c ****   
 768              		.loc 1 459 21 view .LVU247
 769 008a 0020     		movs	r0, #0
 770              	.LVL48:
 459:base/chip/Drivers/STM32F1xx_HAL_Driver/Src/stm32f1xx_hal_dma.c ****   
 771              		.loc 1 459 21 view .LVU248
 772 008c C0E7     		b	.L43
 773              	.L55:
 774 008e 00BF     		.align	2
 775              	.L54:
 776 0090 08000240 		.word	1073872904
 777 0094 00000240 		.word	1073872896
 778              		.cfi_endproc
 779              	.LFE70:
ARM GAS  /tmp/ccqu0Abp.s 			page 34


 781              		.section	.text.HAL_DMA_PollForTransfer,"ax",%progbits
 782              		.align	1
 783              		.global	HAL_DMA_PollForTransfer
 784              		.syntax unified
 785              		.thumb
 786              		.thumb_func
 787              		.fpu softvfp
 789              	HAL_DMA_PollForTransfer:
 790              	.LVL49:
 791              	.LFB71:
 503:base/chip/Drivers/STM32F1xx_HAL_Driver/Src/stm32f1xx_hal_dma.c ****   uint32_t temp;
 792              		.loc 1 503 1 is_stmt 1 view -0
 793              		.cfi_startproc
 794              		@ args = 0, pretend = 0, frame = 0
 795              		@ frame_needed = 0, uses_anonymous_args = 0
 503:base/chip/Drivers/STM32F1xx_HAL_Driver/Src/stm32f1xx_hal_dma.c ****   uint32_t temp;
 796              		.loc 1 503 1 is_stmt 0 view .LVU250
 797 0000 2DE9F041 		push	{r4, r5, r6, r7, r8, lr}
 798              	.LCFI10:
 799              		.cfi_def_cfa_offset 24
 800              		.cfi_offset 4, -24
 801              		.cfi_offset 5, -20
 802              		.cfi_offset 6, -16
 803              		.cfi_offset 7, -12
 804              		.cfi_offset 8, -8
 805              		.cfi_offset 14, -4
 806 0004 0446     		mov	r4, r0
 504:base/chip/Drivers/STM32F1xx_HAL_Driver/Src/stm32f1xx_hal_dma.c ****   uint32_t tickstart = 0U;
 807              		.loc 1 504 3 is_stmt 1 view .LVU251
 505:base/chip/Drivers/STM32F1xx_HAL_Driver/Src/stm32f1xx_hal_dma.c **** 
 808              		.loc 1 505 3 view .LVU252
 809              	.LVL50:
 507:base/chip/Drivers/STM32F1xx_HAL_Driver/Src/stm32f1xx_hal_dma.c ****   {
 810              		.loc 1 507 3 view .LVU253
 507:base/chip/Drivers/STM32F1xx_HAL_Driver/Src/stm32f1xx_hal_dma.c ****   {
 811              		.loc 1 507 32 is_stmt 0 view .LVU254
 812 0006 90F82130 		ldrb	r3, [r0, #33]	@ zero_extendqisi2
 507:base/chip/Drivers/STM32F1xx_HAL_Driver/Src/stm32f1xx_hal_dma.c ****   {
 813              		.loc 1 507 5 view .LVU255
 814 000a 022B     		cmp	r3, #2
 815 000c 07D0     		beq	.L57
 510:base/chip/Drivers/STM32F1xx_HAL_Driver/Src/stm32f1xx_hal_dma.c ****     __HAL_UNLOCK(hdma);
 816              		.loc 1 510 5 is_stmt 1 view .LVU256
 510:base/chip/Drivers/STM32F1xx_HAL_Driver/Src/stm32f1xx_hal_dma.c ****     __HAL_UNLOCK(hdma);
 817              		.loc 1 510 21 is_stmt 0 view .LVU257
 818 000e 0423     		movs	r3, #4
 819 0010 8363     		str	r3, [r0, #56]
 511:base/chip/Drivers/STM32F1xx_HAL_Driver/Src/stm32f1xx_hal_dma.c ****     return HAL_ERROR;
 820              		.loc 1 511 5 is_stmt 1 view .LVU258
 511:base/chip/Drivers/STM32F1xx_HAL_Driver/Src/stm32f1xx_hal_dma.c ****     return HAL_ERROR;
 821              		.loc 1 511 5 view .LVU259
 822 0012 0023     		movs	r3, #0
 823 0014 80F82030 		strb	r3, [r0, #32]
 511:base/chip/Drivers/STM32F1xx_HAL_Driver/Src/stm32f1xx_hal_dma.c ****     return HAL_ERROR;
 824              		.loc 1 511 5 view .LVU260
 512:base/chip/Drivers/STM32F1xx_HAL_Driver/Src/stm32f1xx_hal_dma.c ****   }
 825              		.loc 1 512 5 view .LVU261
ARM GAS  /tmp/ccqu0Abp.s 			page 35


 512:base/chip/Drivers/STM32F1xx_HAL_Driver/Src/stm32f1xx_hal_dma.c ****   }
 826              		.loc 1 512 12 is_stmt 0 view .LVU262
 827 0018 0120     		movs	r0, #1
 828              	.LVL51:
 829              	.L58:
 595:base/chip/Drivers/STM32F1xx_HAL_Driver/Src/stm32f1xx_hal_dma.c **** 
 830              		.loc 1 595 1 view .LVU263
 831 001a BDE8F081 		pop	{r4, r5, r6, r7, r8, pc}
 832              	.LVL52:
 833              	.L57:
 595:base/chip/Drivers/STM32F1xx_HAL_Driver/Src/stm32f1xx_hal_dma.c **** 
 834              		.loc 1 595 1 view .LVU264
 835 001e 0F46     		mov	r7, r1
 836 0020 1546     		mov	r5, r2
 516:base/chip/Drivers/STM32F1xx_HAL_Driver/Src/stm32f1xx_hal_dma.c ****   {
 837              		.loc 1 516 3 is_stmt 1 view .LVU265
 516:base/chip/Drivers/STM32F1xx_HAL_Driver/Src/stm32f1xx_hal_dma.c ****   {
 838              		.loc 1 516 21 is_stmt 0 view .LVU266
 839 0022 0368     		ldr	r3, [r0]
 516:base/chip/Drivers/STM32F1xx_HAL_Driver/Src/stm32f1xx_hal_dma.c ****   {
 840              		.loc 1 516 31 view .LVU267
 841 0024 1A68     		ldr	r2, [r3]
 842              	.LVL53:
 516:base/chip/Drivers/STM32F1xx_HAL_Driver/Src/stm32f1xx_hal_dma.c ****   {
 843              		.loc 1 516 6 view .LVU268
 844 0026 12F0200F 		tst	r2, #32
 845 002a 15D1     		bne	.L103
 523:base/chip/Drivers/STM32F1xx_HAL_Driver/Src/stm32f1xx_hal_dma.c ****   {
 846              		.loc 1 523 3 is_stmt 1 view .LVU269
 523:base/chip/Drivers/STM32F1xx_HAL_Driver/Src/stm32f1xx_hal_dma.c ****   {
 847              		.loc 1 523 5 is_stmt 0 view .LVU270
 848 002c E1B9     		cbnz	r1, .L60
 526:base/chip/Drivers/STM32F1xx_HAL_Driver/Src/stm32f1xx_hal_dma.c ****   }
 849              		.loc 1 526 5 is_stmt 1 view .LVU271
 526:base/chip/Drivers/STM32F1xx_HAL_Driver/Src/stm32f1xx_hal_dma.c ****   }
 850              		.loc 1 526 12 is_stmt 0 view .LVU272
 851 002e 7D4A     		ldr	r2, .L112
 852 0030 9342     		cmp	r3, r2
 853 0032 31D0     		beq	.L72
 526:base/chip/Drivers/STM32F1xx_HAL_Driver/Src/stm32f1xx_hal_dma.c ****   }
 854              		.loc 1 526 12 discriminator 1 view .LVU273
 855 0034 1432     		adds	r2, r2, #20
 856 0036 9342     		cmp	r3, r2
 857 0038 33D0     		beq	.L73
 526:base/chip/Drivers/STM32F1xx_HAL_Driver/Src/stm32f1xx_hal_dma.c ****   }
 858              		.loc 1 526 12 discriminator 3 view .LVU274
 859 003a 1432     		adds	r2, r2, #20
 860 003c 9342     		cmp	r3, r2
 861 003e 32D0     		beq	.L74
 526:base/chip/Drivers/STM32F1xx_HAL_Driver/Src/stm32f1xx_hal_dma.c ****   }
 862              		.loc 1 526 12 discriminator 5 view .LVU275
 863 0040 1432     		adds	r2, r2, #20
 864 0042 9342     		cmp	r3, r2
 865 0044 32D0     		beq	.L75
 526:base/chip/Drivers/STM32F1xx_HAL_Driver/Src/stm32f1xx_hal_dma.c ****   }
 866              		.loc 1 526 12 discriminator 7 view .LVU276
 867 0046 1432     		adds	r2, r2, #20
ARM GAS  /tmp/ccqu0Abp.s 			page 36


 868 0048 9342     		cmp	r3, r2
 869 004a 32D0     		beq	.L76
 526:base/chip/Drivers/STM32F1xx_HAL_Driver/Src/stm32f1xx_hal_dma.c ****   }
 870              		.loc 1 526 12 discriminator 9 view .LVU277
 871 004c 1432     		adds	r2, r2, #20
 872 004e 9342     		cmp	r3, r2
 873 0050 07D0     		beq	.L104
 526:base/chip/Drivers/STM32F1xx_HAL_Driver/Src/stm32f1xx_hal_dma.c ****   }
 874              		.loc 1 526 12 view .LVU278
 875 0052 4FF00076 		mov	r6, #33554432
 876 0056 20E0     		b	.L61
 877              	.L103:
 518:base/chip/Drivers/STM32F1xx_HAL_Driver/Src/stm32f1xx_hal_dma.c ****     return HAL_ERROR;
 878              		.loc 1 518 5 is_stmt 1 view .LVU279
 518:base/chip/Drivers/STM32F1xx_HAL_Driver/Src/stm32f1xx_hal_dma.c ****     return HAL_ERROR;
 879              		.loc 1 518 21 is_stmt 0 view .LVU280
 880 0058 4FF48073 		mov	r3, #256
 881 005c 8363     		str	r3, [r0, #56]
 519:base/chip/Drivers/STM32F1xx_HAL_Driver/Src/stm32f1xx_hal_dma.c ****   }
 882              		.loc 1 519 5 is_stmt 1 view .LVU281
 519:base/chip/Drivers/STM32F1xx_HAL_Driver/Src/stm32f1xx_hal_dma.c ****   }
 883              		.loc 1 519 12 is_stmt 0 view .LVU282
 884 005e 0120     		movs	r0, #1
 885              	.LVL54:
 519:base/chip/Drivers/STM32F1xx_HAL_Driver/Src/stm32f1xx_hal_dma.c ****   }
 886              		.loc 1 519 12 view .LVU283
 887 0060 DBE7     		b	.L58
 888              	.LVL55:
 889              	.L104:
 526:base/chip/Drivers/STM32F1xx_HAL_Driver/Src/stm32f1xx_hal_dma.c ****   }
 890              		.loc 1 526 12 view .LVU284
 891 0062 4FF40016 		mov	r6, #2097152
 892 0066 18E0     		b	.L61
 893              	.L60:
 531:base/chip/Drivers/STM32F1xx_HAL_Driver/Src/stm32f1xx_hal_dma.c ****   }
 894              		.loc 1 531 5 is_stmt 1 view .LVU285
 531:base/chip/Drivers/STM32F1xx_HAL_Driver/Src/stm32f1xx_hal_dma.c ****   }
 895              		.loc 1 531 12 is_stmt 0 view .LVU286
 896 0068 6E4A     		ldr	r2, .L112
 897 006a 9342     		cmp	r3, r2
 898 006c 24D0     		beq	.L78
 531:base/chip/Drivers/STM32F1xx_HAL_Driver/Src/stm32f1xx_hal_dma.c ****   }
 899              		.loc 1 531 12 discriminator 1 view .LVU287
 900 006e 1432     		adds	r2, r2, #20
 901 0070 9342     		cmp	r3, r2
 902 0072 23D0     		beq	.L79
 531:base/chip/Drivers/STM32F1xx_HAL_Driver/Src/stm32f1xx_hal_dma.c ****   }
 903              		.loc 1 531 12 discriminator 3 view .LVU288
 904 0074 1432     		adds	r2, r2, #20
 905 0076 9342     		cmp	r3, r2
 906 0078 22D0     		beq	.L80
 531:base/chip/Drivers/STM32F1xx_HAL_Driver/Src/stm32f1xx_hal_dma.c ****   }
 907              		.loc 1 531 12 discriminator 5 view .LVU289
 908 007a 1432     		adds	r2, r2, #20
 909 007c 9342     		cmp	r3, r2
 910 007e 22D0     		beq	.L81
 531:base/chip/Drivers/STM32F1xx_HAL_Driver/Src/stm32f1xx_hal_dma.c ****   }
ARM GAS  /tmp/ccqu0Abp.s 			page 37


 911              		.loc 1 531 12 discriminator 7 view .LVU290
 912 0080 1432     		adds	r2, r2, #20
 913 0082 9342     		cmp	r3, r2
 914 0084 22D0     		beq	.L82
 531:base/chip/Drivers/STM32F1xx_HAL_Driver/Src/stm32f1xx_hal_dma.c ****   }
 915              		.loc 1 531 12 discriminator 9 view .LVU291
 916 0086 1432     		adds	r2, r2, #20
 917 0088 9342     		cmp	r3, r2
 918 008a 02D0     		beq	.L105
 531:base/chip/Drivers/STM32F1xx_HAL_Driver/Src/stm32f1xx_hal_dma.c ****   }
 919              		.loc 1 531 12 view .LVU292
 920 008c 4FF08066 		mov	r6, #67108864
 921 0090 03E0     		b	.L61
 922              	.L105:
 923 0092 4FF48006 		mov	r6, #4194304
 924 0096 00E0     		b	.L61
 925              	.L72:
 526:base/chip/Drivers/STM32F1xx_HAL_Driver/Src/stm32f1xx_hal_dma.c ****   }
 926              		.loc 1 526 12 view .LVU293
 927 0098 0226     		movs	r6, #2
 928              	.L61:
 929              	.LVL56:
 535:base/chip/Drivers/STM32F1xx_HAL_Driver/Src/stm32f1xx_hal_dma.c **** 
 930              		.loc 1 535 3 is_stmt 1 view .LVU294
 535:base/chip/Drivers/STM32F1xx_HAL_Driver/Src/stm32f1xx_hal_dma.c **** 
 931              		.loc 1 535 15 is_stmt 0 view .LVU295
 932 009a FFF7FEFF 		bl	HAL_GetTick
 933              	.LVL57:
 535:base/chip/Drivers/STM32F1xx_HAL_Driver/Src/stm32f1xx_hal_dma.c **** 
 934              		.loc 1 535 15 view .LVU296
 935 009e 8046     		mov	r8, r0
 936              	.LVL58:
 537:base/chip/Drivers/STM32F1xx_HAL_Driver/Src/stm32f1xx_hal_dma.c ****   {
 937              		.loc 1 537 3 is_stmt 1 view .LVU297
 537:base/chip/Drivers/STM32F1xx_HAL_Driver/Src/stm32f1xx_hal_dma.c ****   {
 938              		.loc 1 537 8 is_stmt 0 view .LVU298
 939 00a0 20E0     		b	.L65
 940              	.LVL59:
 941              	.L73:
 526:base/chip/Drivers/STM32F1xx_HAL_Driver/Src/stm32f1xx_hal_dma.c ****   }
 942              		.loc 1 526 12 view .LVU299
 943 00a2 2026     		movs	r6, #32
 944 00a4 F9E7     		b	.L61
 945              	.L74:
 946 00a6 4FF40076 		mov	r6, #512
 947 00aa F6E7     		b	.L61
 948              	.L75:
 949 00ac 4FF40056 		mov	r6, #8192
 950 00b0 F3E7     		b	.L61
 951              	.L76:
 952 00b2 4FF40036 		mov	r6, #131072
 953 00b6 F0E7     		b	.L61
 954              	.L78:
 531:base/chip/Drivers/STM32F1xx_HAL_Driver/Src/stm32f1xx_hal_dma.c ****   }
 955              		.loc 1 531 12 view .LVU300
 956 00b8 0426     		movs	r6, #4
 957 00ba EEE7     		b	.L61
ARM GAS  /tmp/ccqu0Abp.s 			page 38


 958              	.L79:
 959 00bc 4026     		movs	r6, #64
 960 00be ECE7     		b	.L61
 961              	.L80:
 962 00c0 4FF48066 		mov	r6, #1024
 963 00c4 E9E7     		b	.L61
 964              	.L81:
 965 00c6 4FF48046 		mov	r6, #16384
 966 00ca E6E7     		b	.L61
 967              	.L82:
 968 00cc 4FF48026 		mov	r6, #262144
 969 00d0 E3E7     		b	.L61
 970              	.LVL60:
 971              	.L109:
 539:base/chip/Drivers/STM32F1xx_HAL_Driver/Src/stm32f1xx_hal_dma.c ****     {
 972              		.loc 1 539 9 view .LVU301
 973 00d2 4FF40003 		mov	r3, #8388608
 974 00d6 00E0     		b	.L63
 975              	.L84:
 976 00d8 0823     		movs	r3, #8
 977              	.L63:
 539:base/chip/Drivers/STM32F1xx_HAL_Driver/Src/stm32f1xx_hal_dma.c ****     {
 978              		.loc 1 539 7 discriminator 24 view .LVU302
 979 00da 1A42     		tst	r2, r3
 980 00dc 29D1     		bne	.L106
 558:base/chip/Drivers/STM32F1xx_HAL_Driver/Src/stm32f1xx_hal_dma.c ****     {
 981              		.loc 1 558 5 is_stmt 1 view .LVU303
 558:base/chip/Drivers/STM32F1xx_HAL_Driver/Src/stm32f1xx_hal_dma.c ****     {
 982              		.loc 1 558 7 is_stmt 0 view .LVU304
 983 00de B5F1FF3F 		cmp	r5, #-1
 984 00e2 35D1     		bne	.L107
 985              	.L65:
 537:base/chip/Drivers/STM32F1xx_HAL_Driver/Src/stm32f1xx_hal_dma.c ****   {
 986              		.loc 1 537 40 is_stmt 1 view .LVU305
 537:base/chip/Drivers/STM32F1xx_HAL_Driver/Src/stm32f1xx_hal_dma.c ****   {
 987              		.loc 1 537 9 is_stmt 0 view .LVU306
 988 00e4 504B     		ldr	r3, .L112+4
 989 00e6 1B68     		ldr	r3, [r3]
 537:base/chip/Drivers/STM32F1xx_HAL_Driver/Src/stm32f1xx_hal_dma.c ****   {
 990              		.loc 1 537 40 view .LVU307
 991 00e8 3342     		tst	r3, r6
 992 00ea 43D1     		bne	.L108
 539:base/chip/Drivers/STM32F1xx_HAL_Driver/Src/stm32f1xx_hal_dma.c ****     {
 993              		.loc 1 539 5 is_stmt 1 view .LVU308
 539:base/chip/Drivers/STM32F1xx_HAL_Driver/Src/stm32f1xx_hal_dma.c ****     {
 994              		.loc 1 539 9 is_stmt 0 view .LVU309
 995 00ec 4E4B     		ldr	r3, .L112+4
 996 00ee 1A68     		ldr	r2, [r3]
 997 00f0 2368     		ldr	r3, [r4]
 998 00f2 4C49     		ldr	r1, .L112
 999 00f4 8B42     		cmp	r3, r1
 1000 00f6 EFD0     		beq	.L84
 539:base/chip/Drivers/STM32F1xx_HAL_Driver/Src/stm32f1xx_hal_dma.c ****     {
 1001              		.loc 1 539 9 discriminator 1 view .LVU310
 1002 00f8 1431     		adds	r1, r1, #20
 1003 00fa 8B42     		cmp	r3, r1
 1004 00fc 0ED0     		beq	.L85
ARM GAS  /tmp/ccqu0Abp.s 			page 39


 539:base/chip/Drivers/STM32F1xx_HAL_Driver/Src/stm32f1xx_hal_dma.c ****     {
 1005              		.loc 1 539 9 discriminator 3 view .LVU311
 1006 00fe 1431     		adds	r1, r1, #20
 1007 0100 8B42     		cmp	r3, r1
 1008 0102 0DD0     		beq	.L86
 539:base/chip/Drivers/STM32F1xx_HAL_Driver/Src/stm32f1xx_hal_dma.c ****     {
 1009              		.loc 1 539 9 discriminator 5 view .LVU312
 1010 0104 1431     		adds	r1, r1, #20
 1011 0106 8B42     		cmp	r3, r1
 1012 0108 0DD0     		beq	.L87
 539:base/chip/Drivers/STM32F1xx_HAL_Driver/Src/stm32f1xx_hal_dma.c ****     {
 1013              		.loc 1 539 9 discriminator 7 view .LVU313
 1014 010a 1431     		adds	r1, r1, #20
 1015 010c 8B42     		cmp	r3, r1
 1016 010e 0DD0     		beq	.L88
 539:base/chip/Drivers/STM32F1xx_HAL_Driver/Src/stm32f1xx_hal_dma.c ****     {
 1017              		.loc 1 539 9 discriminator 9 view .LVU314
 1018 0110 1431     		adds	r1, r1, #20
 1019 0112 8B42     		cmp	r3, r1
 1020 0114 DDD0     		beq	.L109
 539:base/chip/Drivers/STM32F1xx_HAL_Driver/Src/stm32f1xx_hal_dma.c ****     {
 1021              		.loc 1 539 9 view .LVU315
 1022 0116 4FF00063 		mov	r3, #134217728
 1023 011a DEE7     		b	.L63
 1024              	.L85:
 1025 011c 8023     		movs	r3, #128
 1026 011e DCE7     		b	.L63
 1027              	.L86:
 1028 0120 4FF40063 		mov	r3, #2048
 1029 0124 D9E7     		b	.L63
 1030              	.L87:
 1031 0126 4FF40043 		mov	r3, #32768
 1032 012a D6E7     		b	.L63
 1033              	.L88:
 1034 012c 4FF40023 		mov	r3, #524288
 1035 0130 D3E7     		b	.L63
 1036              	.L106:
 544:base/chip/Drivers/STM32F1xx_HAL_Driver/Src/stm32f1xx_hal_dma.c **** 
 1037              		.loc 1 544 7 is_stmt 1 view .LVU316
 544:base/chip/Drivers/STM32F1xx_HAL_Driver/Src/stm32f1xx_hal_dma.c **** 
 1038              		.loc 1 544 57 is_stmt 0 view .LVU317
 1039 0132 236C     		ldr	r3, [r4, #64]
 544:base/chip/Drivers/STM32F1xx_HAL_Driver/Src/stm32f1xx_hal_dma.c **** 
 1040              		.loc 1 544 11 view .LVU318
 1041 0134 E26B     		ldr	r2, [r4, #60]
 544:base/chip/Drivers/STM32F1xx_HAL_Driver/Src/stm32f1xx_hal_dma.c **** 
 1042              		.loc 1 544 50 view .LVU319
 1043 0136 0120     		movs	r0, #1
 1044 0138 00FA03F3 		lsl	r3, r0, r3
 544:base/chip/Drivers/STM32F1xx_HAL_Driver/Src/stm32f1xx_hal_dma.c **** 
 1045              		.loc 1 544 34 view .LVU320
 1046 013c 5360     		str	r3, [r2, #4]
 547:base/chip/Drivers/STM32F1xx_HAL_Driver/Src/stm32f1xx_hal_dma.c **** 
 1047              		.loc 1 547 7 is_stmt 1 view .LVU321
 1048 013e A36B     		ldr	r3, [r4, #56]
 1049 0140 0343     		orrs	r3, r3, r0
 1050 0142 A363     		str	r3, [r4, #56]
ARM GAS  /tmp/ccqu0Abp.s 			page 40


 550:base/chip/Drivers/STM32F1xx_HAL_Driver/Src/stm32f1xx_hal_dma.c **** 
 1051              		.loc 1 550 7 view .LVU322
 550:base/chip/Drivers/STM32F1xx_HAL_Driver/Src/stm32f1xx_hal_dma.c **** 
 1052              		.loc 1 550 18 is_stmt 0 view .LVU323
 1053 0144 84F82100 		strb	r0, [r4, #33]
 553:base/chip/Drivers/STM32F1xx_HAL_Driver/Src/stm32f1xx_hal_dma.c **** 
 1054              		.loc 1 553 7 is_stmt 1 view .LVU324
 553:base/chip/Drivers/STM32F1xx_HAL_Driver/Src/stm32f1xx_hal_dma.c **** 
 1055              		.loc 1 553 7 view .LVU325
 1056 0148 0023     		movs	r3, #0
 1057 014a 84F82030 		strb	r3, [r4, #32]
 553:base/chip/Drivers/STM32F1xx_HAL_Driver/Src/stm32f1xx_hal_dma.c **** 
 1058              		.loc 1 553 7 view .LVU326
 555:base/chip/Drivers/STM32F1xx_HAL_Driver/Src/stm32f1xx_hal_dma.c ****     }
 1059              		.loc 1 555 7 view .LVU327
 555:base/chip/Drivers/STM32F1xx_HAL_Driver/Src/stm32f1xx_hal_dma.c ****     }
 1060              		.loc 1 555 14 is_stmt 0 view .LVU328
 1061 014e 64E7     		b	.L58
 1062              	.L107:
 560:base/chip/Drivers/STM32F1xx_HAL_Driver/Src/stm32f1xx_hal_dma.c ****       {
 1063              		.loc 1 560 7 is_stmt 1 view .LVU329
 560:base/chip/Drivers/STM32F1xx_HAL_Driver/Src/stm32f1xx_hal_dma.c ****       {
 1064              		.loc 1 560 9 is_stmt 0 view .LVU330
 1065 0150 2DB1     		cbz	r5, .L66
 560:base/chip/Drivers/STM32F1xx_HAL_Driver/Src/stm32f1xx_hal_dma.c ****       {
 1066              		.loc 1 560 31 discriminator 1 view .LVU331
 1067 0152 FFF7FEFF 		bl	HAL_GetTick
 1068              	.LVL61:
 560:base/chip/Drivers/STM32F1xx_HAL_Driver/Src/stm32f1xx_hal_dma.c ****       {
 1069              		.loc 1 560 45 discriminator 1 view .LVU332
 1070 0156 A0EB0800 		sub	r0, r0, r8
 560:base/chip/Drivers/STM32F1xx_HAL_Driver/Src/stm32f1xx_hal_dma.c ****       {
 1071              		.loc 1 560 26 discriminator 1 view .LVU333
 1072 015a A842     		cmp	r0, r5
 1073 015c C2D9     		bls	.L65
 1074              	.L66:
 563:base/chip/Drivers/STM32F1xx_HAL_Driver/Src/stm32f1xx_hal_dma.c **** 
 1075              		.loc 1 563 9 is_stmt 1 view .LVU334
 1076 015e A36B     		ldr	r3, [r4, #56]
 1077 0160 43F02003 		orr	r3, r3, #32
 1078 0164 A363     		str	r3, [r4, #56]
 566:base/chip/Drivers/STM32F1xx_HAL_Driver/Src/stm32f1xx_hal_dma.c **** 
 1079              		.loc 1 566 9 view .LVU335
 566:base/chip/Drivers/STM32F1xx_HAL_Driver/Src/stm32f1xx_hal_dma.c **** 
 1080              		.loc 1 566 21 is_stmt 0 view .LVU336
 1081 0166 0120     		movs	r0, #1
 1082 0168 84F82100 		strb	r0, [r4, #33]
 569:base/chip/Drivers/STM32F1xx_HAL_Driver/Src/stm32f1xx_hal_dma.c **** 
 1083              		.loc 1 569 9 is_stmt 1 view .LVU337
 569:base/chip/Drivers/STM32F1xx_HAL_Driver/Src/stm32f1xx_hal_dma.c **** 
 1084              		.loc 1 569 9 view .LVU338
 1085 016c 0023     		movs	r3, #0
 1086 016e 84F82030 		strb	r3, [r4, #32]
 569:base/chip/Drivers/STM32F1xx_HAL_Driver/Src/stm32f1xx_hal_dma.c **** 
 1087              		.loc 1 569 9 view .LVU339
 571:base/chip/Drivers/STM32F1xx_HAL_Driver/Src/stm32f1xx_hal_dma.c ****       }
 1088              		.loc 1 571 9 view .LVU340
ARM GAS  /tmp/ccqu0Abp.s 			page 41


 571:base/chip/Drivers/STM32F1xx_HAL_Driver/Src/stm32f1xx_hal_dma.c ****       }
 1089              		.loc 1 571 16 is_stmt 0 view .LVU341
 1090 0172 52E7     		b	.L58
 1091              	.L108:
 576:base/chip/Drivers/STM32F1xx_HAL_Driver/Src/stm32f1xx_hal_dma.c ****   {
 1092              		.loc 1 576 3 is_stmt 1 view .LVU342
 576:base/chip/Drivers/STM32F1xx_HAL_Driver/Src/stm32f1xx_hal_dma.c ****   {
 1093              		.loc 1 576 5 is_stmt 0 view .LVU343
 1094 0174 6FBB     		cbnz	r7, .L68
 579:base/chip/Drivers/STM32F1xx_HAL_Driver/Src/stm32f1xx_hal_dma.c **** 
 1095              		.loc 1 579 5 is_stmt 1 view .LVU344
 1096 0176 2368     		ldr	r3, [r4]
 1097 0178 2A4A     		ldr	r2, .L112
 1098 017a 9342     		cmp	r3, r2
 1099 017c 14D0     		beq	.L90
 579:base/chip/Drivers/STM32F1xx_HAL_Driver/Src/stm32f1xx_hal_dma.c **** 
 1100              		.loc 1 579 5 is_stmt 0 discriminator 1 view .LVU345
 1101 017e 1432     		adds	r2, r2, #20
 1102 0180 9342     		cmp	r3, r2
 1103 0182 1BD0     		beq	.L91
 579:base/chip/Drivers/STM32F1xx_HAL_Driver/Src/stm32f1xx_hal_dma.c **** 
 1104              		.loc 1 579 5 discriminator 3 view .LVU346
 1105 0184 1432     		adds	r2, r2, #20
 1106 0186 9342     		cmp	r3, r2
 1107 0188 1AD0     		beq	.L92
 579:base/chip/Drivers/STM32F1xx_HAL_Driver/Src/stm32f1xx_hal_dma.c **** 
 1108              		.loc 1 579 5 discriminator 5 view .LVU347
 1109 018a 1432     		adds	r2, r2, #20
 1110 018c 9342     		cmp	r3, r2
 1111 018e 1AD0     		beq	.L93
 579:base/chip/Drivers/STM32F1xx_HAL_Driver/Src/stm32f1xx_hal_dma.c **** 
 1112              		.loc 1 579 5 discriminator 7 view .LVU348
 1113 0190 1432     		adds	r2, r2, #20
 1114 0192 9342     		cmp	r3, r2
 1115 0194 1AD0     		beq	.L94
 579:base/chip/Drivers/STM32F1xx_HAL_Driver/Src/stm32f1xx_hal_dma.c **** 
 1116              		.loc 1 579 5 discriminator 9 view .LVU349
 1117 0196 1432     		adds	r2, r2, #20
 1118 0198 9342     		cmp	r3, r2
 1119 019a 02D0     		beq	.L110
 579:base/chip/Drivers/STM32F1xx_HAL_Driver/Src/stm32f1xx_hal_dma.c **** 
 1120              		.loc 1 579 5 view .LVU350
 1121 019c 4FF00072 		mov	r2, #33554432
 1122 01a0 03E0     		b	.L69
 1123              	.L110:
 1124 01a2 4FF40012 		mov	r2, #2097152
 1125 01a6 00E0     		b	.L69
 1126              	.L90:
 1127 01a8 0222     		movs	r2, #2
 1128              	.L69:
 579:base/chip/Drivers/STM32F1xx_HAL_Driver/Src/stm32f1xx_hal_dma.c **** 
 1129              		.loc 1 579 5 discriminator 24 view .LVU351
 1130 01aa 1F4B     		ldr	r3, .L112+4
 1131 01ac 5A60     		str	r2, [r3, #4]
 583:base/chip/Drivers/STM32F1xx_HAL_Driver/Src/stm32f1xx_hal_dma.c ****   }
 1132              		.loc 1 583 5 is_stmt 1 discriminator 24 view .LVU352
 583:base/chip/Drivers/STM32F1xx_HAL_Driver/Src/stm32f1xx_hal_dma.c ****   }
ARM GAS  /tmp/ccqu0Abp.s 			page 42


 1133              		.loc 1 583 17 is_stmt 0 discriminator 24 view .LVU353
 1134 01ae 0123     		movs	r3, #1
 1135 01b0 84F82130 		strb	r3, [r4, #33]
 1136              	.L70:
 592:base/chip/Drivers/STM32F1xx_HAL_Driver/Src/stm32f1xx_hal_dma.c **** 
 1137              		.loc 1 592 3 is_stmt 1 view .LVU354
 592:base/chip/Drivers/STM32F1xx_HAL_Driver/Src/stm32f1xx_hal_dma.c **** 
 1138              		.loc 1 592 3 view .LVU355
 1139 01b4 0020     		movs	r0, #0
 1140 01b6 84F82000 		strb	r0, [r4, #32]
 592:base/chip/Drivers/STM32F1xx_HAL_Driver/Src/stm32f1xx_hal_dma.c **** 
 1141              		.loc 1 592 3 view .LVU356
 594:base/chip/Drivers/STM32F1xx_HAL_Driver/Src/stm32f1xx_hal_dma.c **** }
 1142              		.loc 1 594 3 view .LVU357
 594:base/chip/Drivers/STM32F1xx_HAL_Driver/Src/stm32f1xx_hal_dma.c **** }
 1143              		.loc 1 594 10 is_stmt 0 view .LVU358
 1144 01ba 2EE7     		b	.L58
 1145              	.L91:
 579:base/chip/Drivers/STM32F1xx_HAL_Driver/Src/stm32f1xx_hal_dma.c **** 
 1146              		.loc 1 579 5 view .LVU359
 1147 01bc 2022     		movs	r2, #32
 1148 01be F4E7     		b	.L69
 1149              	.L92:
 1150 01c0 4FF40072 		mov	r2, #512
 1151 01c4 F1E7     		b	.L69
 1152              	.L93:
 1153 01c6 4FF40052 		mov	r2, #8192
 1154 01ca EEE7     		b	.L69
 1155              	.L94:
 1156 01cc 4FF40032 		mov	r2, #131072
 1157 01d0 EBE7     		b	.L69
 1158              	.L68:
 588:base/chip/Drivers/STM32F1xx_HAL_Driver/Src/stm32f1xx_hal_dma.c ****   }
 1159              		.loc 1 588 5 is_stmt 1 view .LVU360
 1160 01d2 2368     		ldr	r3, [r4]
 1161 01d4 134A     		ldr	r2, .L112
 1162 01d6 9342     		cmp	r3, r2
 1163 01d8 14D0     		beq	.L96
 588:base/chip/Drivers/STM32F1xx_HAL_Driver/Src/stm32f1xx_hal_dma.c ****   }
 1164              		.loc 1 588 5 is_stmt 0 discriminator 1 view .LVU361
 1165 01da 1432     		adds	r2, r2, #20
 1166 01dc 9342     		cmp	r3, r2
 1167 01de 15D0     		beq	.L97
 588:base/chip/Drivers/STM32F1xx_HAL_Driver/Src/stm32f1xx_hal_dma.c ****   }
 1168              		.loc 1 588 5 discriminator 3 view .LVU362
 1169 01e0 1432     		adds	r2, r2, #20
 1170 01e2 9342     		cmp	r3, r2
 1171 01e4 14D0     		beq	.L98
 588:base/chip/Drivers/STM32F1xx_HAL_Driver/Src/stm32f1xx_hal_dma.c ****   }
 1172              		.loc 1 588 5 discriminator 5 view .LVU363
 1173 01e6 1432     		adds	r2, r2, #20
 1174 01e8 9342     		cmp	r3, r2
 1175 01ea 14D0     		beq	.L99
 588:base/chip/Drivers/STM32F1xx_HAL_Driver/Src/stm32f1xx_hal_dma.c ****   }
 1176              		.loc 1 588 5 discriminator 7 view .LVU364
 1177 01ec 1432     		adds	r2, r2, #20
 1178 01ee 9342     		cmp	r3, r2
ARM GAS  /tmp/ccqu0Abp.s 			page 43


 1179 01f0 14D0     		beq	.L100
 588:base/chip/Drivers/STM32F1xx_HAL_Driver/Src/stm32f1xx_hal_dma.c ****   }
 1180              		.loc 1 588 5 discriminator 9 view .LVU365
 1181 01f2 1432     		adds	r2, r2, #20
 1182 01f4 9342     		cmp	r3, r2
 1183 01f6 02D0     		beq	.L111
 588:base/chip/Drivers/STM32F1xx_HAL_Driver/Src/stm32f1xx_hal_dma.c ****   }
 1184              		.loc 1 588 5 view .LVU366
 1185 01f8 4FF08062 		mov	r2, #67108864
 1186 01fc 03E0     		b	.L71
 1187              	.L111:
 1188 01fe 4FF48002 		mov	r2, #4194304
 1189 0202 00E0     		b	.L71
 1190              	.L96:
 1191 0204 0422     		movs	r2, #4
 1192              	.L71:
 588:base/chip/Drivers/STM32F1xx_HAL_Driver/Src/stm32f1xx_hal_dma.c ****   }
 1193              		.loc 1 588 5 discriminator 24 view .LVU367
 1194 0206 084B     		ldr	r3, .L112+4
 1195 0208 5A60     		str	r2, [r3, #4]
 1196 020a D3E7     		b	.L70
 1197              	.L97:
 588:base/chip/Drivers/STM32F1xx_HAL_Driver/Src/stm32f1xx_hal_dma.c ****   }
 1198              		.loc 1 588 5 view .LVU368
 1199 020c 4022     		movs	r2, #64
 1200 020e FAE7     		b	.L71
 1201              	.L98:
 1202 0210 4FF48062 		mov	r2, #1024
 1203 0214 F7E7     		b	.L71
 1204              	.L99:
 1205 0216 4FF48042 		mov	r2, #16384
 1206 021a F4E7     		b	.L71
 1207              	.L100:
 1208 021c 4FF48022 		mov	r2, #262144
 1209 0220 F1E7     		b	.L71
 1210              	.L113:
 1211 0222 00BF     		.align	2
 1212              	.L112:
 1213 0224 08000240 		.word	1073872904
 1214 0228 00000240 		.word	1073872896
 1215              		.cfi_endproc
 1216              	.LFE71:
 1218              		.section	.text.HAL_DMA_IRQHandler,"ax",%progbits
 1219              		.align	1
 1220              		.global	HAL_DMA_IRQHandler
 1221              		.syntax unified
 1222              		.thumb
 1223              		.thumb_func
 1224              		.fpu softvfp
 1226              	HAL_DMA_IRQHandler:
 1227              	.LVL62:
 1228              	.LFB72:
 604:base/chip/Drivers/STM32F1xx_HAL_Driver/Src/stm32f1xx_hal_dma.c ****   uint32_t flag_it = hdma->DmaBaseAddress->ISR;
 1229              		.loc 1 604 1 is_stmt 1 view -0
 1230              		.cfi_startproc
 1231              		@ args = 0, pretend = 0, frame = 0
 1232              		@ frame_needed = 0, uses_anonymous_args = 0
ARM GAS  /tmp/ccqu0Abp.s 			page 44


 604:base/chip/Drivers/STM32F1xx_HAL_Driver/Src/stm32f1xx_hal_dma.c ****   uint32_t flag_it = hdma->DmaBaseAddress->ISR;
 1233              		.loc 1 604 1 is_stmt 0 view .LVU370
 1234 0000 38B5     		push	{r3, r4, r5, lr}
 1235              	.LCFI11:
 1236              		.cfi_def_cfa_offset 16
 1237              		.cfi_offset 3, -16
 1238              		.cfi_offset 4, -12
 1239              		.cfi_offset 5, -8
 1240              		.cfi_offset 14, -4
 605:base/chip/Drivers/STM32F1xx_HAL_Driver/Src/stm32f1xx_hal_dma.c ****   uint32_t source_it = hdma->Instance->CCR;
 1241              		.loc 1 605 3 is_stmt 1 view .LVU371
 605:base/chip/Drivers/STM32F1xx_HAL_Driver/Src/stm32f1xx_hal_dma.c ****   uint32_t source_it = hdma->Instance->CCR;
 1242              		.loc 1 605 26 is_stmt 0 view .LVU372
 1243 0002 C36B     		ldr	r3, [r0, #60]
 605:base/chip/Drivers/STM32F1xx_HAL_Driver/Src/stm32f1xx_hal_dma.c ****   uint32_t source_it = hdma->Instance->CCR;
 1244              		.loc 1 605 12 view .LVU373
 1245 0004 1A68     		ldr	r2, [r3]
 1246              	.LVL63:
 606:base/chip/Drivers/STM32F1xx_HAL_Driver/Src/stm32f1xx_hal_dma.c ****   
 1247              		.loc 1 606 3 is_stmt 1 view .LVU374
 606:base/chip/Drivers/STM32F1xx_HAL_Driver/Src/stm32f1xx_hal_dma.c ****   
 1248              		.loc 1 606 28 is_stmt 0 view .LVU375
 1249 0006 0468     		ldr	r4, [r0]
 606:base/chip/Drivers/STM32F1xx_HAL_Driver/Src/stm32f1xx_hal_dma.c ****   
 1250              		.loc 1 606 12 view .LVU376
 1251 0008 2568     		ldr	r5, [r4]
 1252              	.LVL64:
 609:base/chip/Drivers/STM32F1xx_HAL_Driver/Src/stm32f1xx_hal_dma.c ****   {
 1253              		.loc 1 609 3 is_stmt 1 view .LVU377
 609:base/chip/Drivers/STM32F1xx_HAL_Driver/Src/stm32f1xx_hal_dma.c ****   {
 1254              		.loc 1 609 40 is_stmt 0 view .LVU378
 1255 000a 016C     		ldr	r1, [r0, #64]
 609:base/chip/Drivers/STM32F1xx_HAL_Driver/Src/stm32f1xx_hal_dma.c ****   {
 1256              		.loc 1 609 33 view .LVU379
 1257 000c 0423     		movs	r3, #4
 1258 000e 8B40     		lsls	r3, r3, r1
 609:base/chip/Drivers/STM32F1xx_HAL_Driver/Src/stm32f1xx_hal_dma.c ****   {
 1259              		.loc 1 609 6 view .LVU380
 1260 0010 1342     		tst	r3, r2
 1261 0012 35D0     		beq	.L115
 609:base/chip/Drivers/STM32F1xx_HAL_Driver/Src/stm32f1xx_hal_dma.c ****   {
 1262              		.loc 1 609 67 discriminator 1 view .LVU381
 1263 0014 15F0040F 		tst	r5, #4
 1264 0018 32D0     		beq	.L115
 612:base/chip/Drivers/STM32F1xx_HAL_Driver/Src/stm32f1xx_hal_dma.c ****     {
 1265              		.loc 1 612 5 is_stmt 1 view .LVU382
 612:base/chip/Drivers/STM32F1xx_HAL_Driver/Src/stm32f1xx_hal_dma.c ****     {
 1266              		.loc 1 612 23 is_stmt 0 view .LVU383
 1267 001a 2368     		ldr	r3, [r4]
 612:base/chip/Drivers/STM32F1xx_HAL_Driver/Src/stm32f1xx_hal_dma.c ****     {
 1268              		.loc 1 612 7 view .LVU384
 1269 001c 13F0200F 		tst	r3, #32
 1270 0020 03D1     		bne	.L116
 615:base/chip/Drivers/STM32F1xx_HAL_Driver/Src/stm32f1xx_hal_dma.c ****     }
 1271              		.loc 1 615 7 is_stmt 1 view .LVU385
 1272 0022 2368     		ldr	r3, [r4]
 1273 0024 23F00403 		bic	r3, r3, #4
ARM GAS  /tmp/ccqu0Abp.s 			page 45


 1274 0028 2360     		str	r3, [r4]
 1275              	.L116:
 618:base/chip/Drivers/STM32F1xx_HAL_Driver/Src/stm32f1xx_hal_dma.c **** 
 1276              		.loc 1 618 5 view .LVU386
 1277 002a 0368     		ldr	r3, [r0]
 1278 002c 434A     		ldr	r2, .L137
 1279              	.LVL65:
 618:base/chip/Drivers/STM32F1xx_HAL_Driver/Src/stm32f1xx_hal_dma.c **** 
 1280              		.loc 1 618 5 is_stmt 0 view .LVU387
 1281 002e 9342     		cmp	r3, r2
 1282 0030 14D0     		beq	.L122
 618:base/chip/Drivers/STM32F1xx_HAL_Driver/Src/stm32f1xx_hal_dma.c **** 
 1283              		.loc 1 618 5 discriminator 1 view .LVU388
 1284 0032 1432     		adds	r2, r2, #20
 1285 0034 9342     		cmp	r3, r2
 1286 0036 18D0     		beq	.L123
 618:base/chip/Drivers/STM32F1xx_HAL_Driver/Src/stm32f1xx_hal_dma.c **** 
 1287              		.loc 1 618 5 discriminator 3 view .LVU389
 1288 0038 1432     		adds	r2, r2, #20
 1289 003a 9342     		cmp	r3, r2
 1290 003c 17D0     		beq	.L124
 618:base/chip/Drivers/STM32F1xx_HAL_Driver/Src/stm32f1xx_hal_dma.c **** 
 1291              		.loc 1 618 5 discriminator 5 view .LVU390
 1292 003e 1432     		adds	r2, r2, #20
 1293 0040 9342     		cmp	r3, r2
 1294 0042 17D0     		beq	.L125
 618:base/chip/Drivers/STM32F1xx_HAL_Driver/Src/stm32f1xx_hal_dma.c **** 
 1295              		.loc 1 618 5 discriminator 7 view .LVU391
 1296 0044 1432     		adds	r2, r2, #20
 1297 0046 9342     		cmp	r3, r2
 1298 0048 17D0     		beq	.L126
 618:base/chip/Drivers/STM32F1xx_HAL_Driver/Src/stm32f1xx_hal_dma.c **** 
 1299              		.loc 1 618 5 discriminator 9 view .LVU392
 1300 004a 1432     		adds	r2, r2, #20
 1301 004c 9342     		cmp	r3, r2
 1302 004e 02D0     		beq	.L135
 618:base/chip/Drivers/STM32F1xx_HAL_Driver/Src/stm32f1xx_hal_dma.c **** 
 1303              		.loc 1 618 5 view .LVU393
 1304 0050 4FF08062 		mov	r2, #67108864
 1305 0054 03E0     		b	.L117
 1306              	.L135:
 1307 0056 4FF48002 		mov	r2, #4194304
 1308 005a 00E0     		b	.L117
 1309              	.L122:
 1310 005c 0422     		movs	r2, #4
 1311              	.L117:
 618:base/chip/Drivers/STM32F1xx_HAL_Driver/Src/stm32f1xx_hal_dma.c **** 
 1312              		.loc 1 618 5 discriminator 24 view .LVU394
 1313 005e 384B     		ldr	r3, .L137+4
 1314 0060 5A60     		str	r2, [r3, #4]
 623:base/chip/Drivers/STM32F1xx_HAL_Driver/Src/stm32f1xx_hal_dma.c ****     {
 1315              		.loc 1 623 5 is_stmt 1 discriminator 24 view .LVU395
 623:base/chip/Drivers/STM32F1xx_HAL_Driver/Src/stm32f1xx_hal_dma.c ****     {
 1316              		.loc 1 623 12 is_stmt 0 discriminator 24 view .LVU396
 1317 0062 C36A     		ldr	r3, [r0, #44]
 623:base/chip/Drivers/STM32F1xx_HAL_Driver/Src/stm32f1xx_hal_dma.c ****     {
 1318              		.loc 1 623 7 discriminator 24 view .LVU397
ARM GAS  /tmp/ccqu0Abp.s 			page 46


 1319 0064 03B1     		cbz	r3, .L114
 626:base/chip/Drivers/STM32F1xx_HAL_Driver/Src/stm32f1xx_hal_dma.c ****     }
 1320              		.loc 1 626 7 is_stmt 1 view .LVU398
 1321 0066 9847     		blx	r3
 1322              	.LVL66:
 1323              	.L114:
 681:base/chip/Drivers/STM32F1xx_HAL_Driver/Src/stm32f1xx_hal_dma.c **** 
 1324              		.loc 1 681 1 is_stmt 0 view .LVU399
 1325 0068 38BD     		pop	{r3, r4, r5, pc}
 1326              	.LVL67:
 1327              	.L123:
 618:base/chip/Drivers/STM32F1xx_HAL_Driver/Src/stm32f1xx_hal_dma.c **** 
 1328              		.loc 1 618 5 view .LVU400
 1329 006a 4022     		movs	r2, #64
 1330 006c F7E7     		b	.L117
 1331              	.L124:
 1332 006e 4FF48062 		mov	r2, #1024
 1333 0072 F4E7     		b	.L117
 1334              	.L125:
 1335 0074 4FF48042 		mov	r2, #16384
 1336 0078 F1E7     		b	.L117
 1337              	.L126:
 1338 007a 4FF48022 		mov	r2, #262144
 1339 007e EEE7     		b	.L117
 1340              	.LVL68:
 1341              	.L115:
 631:base/chip/Drivers/STM32F1xx_HAL_Driver/Src/stm32f1xx_hal_dma.c ****   {
 1342              		.loc 1 631 8 is_stmt 1 view .LVU401
 631:base/chip/Drivers/STM32F1xx_HAL_Driver/Src/stm32f1xx_hal_dma.c ****   {
 1343              		.loc 1 631 38 is_stmt 0 view .LVU402
 1344 0080 0223     		movs	r3, #2
 1345 0082 8B40     		lsls	r3, r3, r1
 631:base/chip/Drivers/STM32F1xx_HAL_Driver/Src/stm32f1xx_hal_dma.c ****   {
 1346              		.loc 1 631 11 view .LVU403
 1347 0084 1342     		tst	r3, r2
 1348 0086 3CD0     		beq	.L119
 631:base/chip/Drivers/STM32F1xx_HAL_Driver/Src/stm32f1xx_hal_dma.c ****   {
 1349              		.loc 1 631 72 discriminator 1 view .LVU404
 1350 0088 15F0020F 		tst	r5, #2
 1351 008c 39D0     		beq	.L119
 633:base/chip/Drivers/STM32F1xx_HAL_Driver/Src/stm32f1xx_hal_dma.c ****     {
 1352              		.loc 1 633 5 is_stmt 1 view .LVU405
 633:base/chip/Drivers/STM32F1xx_HAL_Driver/Src/stm32f1xx_hal_dma.c ****     {
 1353              		.loc 1 633 23 is_stmt 0 view .LVU406
 1354 008e 2368     		ldr	r3, [r4]
 633:base/chip/Drivers/STM32F1xx_HAL_Driver/Src/stm32f1xx_hal_dma.c ****     {
 1355              		.loc 1 633 7 view .LVU407
 1356 0090 13F0200F 		tst	r3, #32
 1357 0094 06D1     		bne	.L120
 636:base/chip/Drivers/STM32F1xx_HAL_Driver/Src/stm32f1xx_hal_dma.c **** 
 1358              		.loc 1 636 7 is_stmt 1 view .LVU408
 1359 0096 2368     		ldr	r3, [r4]
 1360 0098 23F00A03 		bic	r3, r3, #10
 1361 009c 2360     		str	r3, [r4]
 639:base/chip/Drivers/STM32F1xx_HAL_Driver/Src/stm32f1xx_hal_dma.c ****     }
 1362              		.loc 1 639 7 view .LVU409
 639:base/chip/Drivers/STM32F1xx_HAL_Driver/Src/stm32f1xx_hal_dma.c ****     }
ARM GAS  /tmp/ccqu0Abp.s 			page 47


 1363              		.loc 1 639 19 is_stmt 0 view .LVU410
 1364 009e 0123     		movs	r3, #1
 1365 00a0 80F82130 		strb	r3, [r0, #33]
 1366              	.L120:
 642:base/chip/Drivers/STM32F1xx_HAL_Driver/Src/stm32f1xx_hal_dma.c **** 
 1367              		.loc 1 642 7 is_stmt 1 view .LVU411
 1368 00a4 0368     		ldr	r3, [r0]
 1369 00a6 254A     		ldr	r2, .L137
 1370              	.LVL69:
 642:base/chip/Drivers/STM32F1xx_HAL_Driver/Src/stm32f1xx_hal_dma.c **** 
 1371              		.loc 1 642 7 is_stmt 0 view .LVU412
 1372 00a8 9342     		cmp	r3, r2
 1373 00aa 14D0     		beq	.L128
 642:base/chip/Drivers/STM32F1xx_HAL_Driver/Src/stm32f1xx_hal_dma.c **** 
 1374              		.loc 1 642 7 discriminator 1 view .LVU413
 1375 00ac 1432     		adds	r2, r2, #20
 1376 00ae 9342     		cmp	r3, r2
 1377 00b0 1CD0     		beq	.L129
 642:base/chip/Drivers/STM32F1xx_HAL_Driver/Src/stm32f1xx_hal_dma.c **** 
 1378              		.loc 1 642 7 discriminator 3 view .LVU414
 1379 00b2 1432     		adds	r2, r2, #20
 1380 00b4 9342     		cmp	r3, r2
 1381 00b6 1BD0     		beq	.L130
 642:base/chip/Drivers/STM32F1xx_HAL_Driver/Src/stm32f1xx_hal_dma.c **** 
 1382              		.loc 1 642 7 discriminator 5 view .LVU415
 1383 00b8 1432     		adds	r2, r2, #20
 1384 00ba 9342     		cmp	r3, r2
 1385 00bc 1BD0     		beq	.L131
 642:base/chip/Drivers/STM32F1xx_HAL_Driver/Src/stm32f1xx_hal_dma.c **** 
 1386              		.loc 1 642 7 discriminator 7 view .LVU416
 1387 00be 1432     		adds	r2, r2, #20
 1388 00c0 9342     		cmp	r3, r2
 1389 00c2 1BD0     		beq	.L132
 642:base/chip/Drivers/STM32F1xx_HAL_Driver/Src/stm32f1xx_hal_dma.c **** 
 1390              		.loc 1 642 7 discriminator 9 view .LVU417
 1391 00c4 1432     		adds	r2, r2, #20
 1392 00c6 9342     		cmp	r3, r2
 1393 00c8 02D0     		beq	.L136
 642:base/chip/Drivers/STM32F1xx_HAL_Driver/Src/stm32f1xx_hal_dma.c **** 
 1394              		.loc 1 642 7 view .LVU418
 1395 00ca 4FF00072 		mov	r2, #33554432
 1396 00ce 03E0     		b	.L121
 1397              	.L136:
 1398 00d0 4FF40012 		mov	r2, #2097152
 1399 00d4 00E0     		b	.L121
 1400              	.L128:
 1401 00d6 0222     		movs	r2, #2
 1402              	.L121:
 642:base/chip/Drivers/STM32F1xx_HAL_Driver/Src/stm32f1xx_hal_dma.c **** 
 1403              		.loc 1 642 7 discriminator 24 view .LVU419
 1404 00d8 194B     		ldr	r3, .L137+4
 1405 00da 5A60     		str	r2, [r3, #4]
 645:base/chip/Drivers/STM32F1xx_HAL_Driver/Src/stm32f1xx_hal_dma.c **** 
 1406              		.loc 1 645 5 is_stmt 1 discriminator 24 view .LVU420
 645:base/chip/Drivers/STM32F1xx_HAL_Driver/Src/stm32f1xx_hal_dma.c **** 
 1407              		.loc 1 645 5 discriminator 24 view .LVU421
 1408 00dc 0023     		movs	r3, #0
ARM GAS  /tmp/ccqu0Abp.s 			page 48


 1409 00de 80F82030 		strb	r3, [r0, #32]
 645:base/chip/Drivers/STM32F1xx_HAL_Driver/Src/stm32f1xx_hal_dma.c **** 
 1410              		.loc 1 645 5 discriminator 24 view .LVU422
 647:base/chip/Drivers/STM32F1xx_HAL_Driver/Src/stm32f1xx_hal_dma.c ****     {
 1411              		.loc 1 647 5 discriminator 24 view .LVU423
 647:base/chip/Drivers/STM32F1xx_HAL_Driver/Src/stm32f1xx_hal_dma.c ****     {
 1412              		.loc 1 647 12 is_stmt 0 discriminator 24 view .LVU424
 1413 00e2 836A     		ldr	r3, [r0, #40]
 647:base/chip/Drivers/STM32F1xx_HAL_Driver/Src/stm32f1xx_hal_dma.c ****     {
 1414              		.loc 1 647 7 discriminator 24 view .LVU425
 1415 00e4 002B     		cmp	r3, #0
 1416 00e6 BFD0     		beq	.L114
 650:base/chip/Drivers/STM32F1xx_HAL_Driver/Src/stm32f1xx_hal_dma.c ****     }
 1417              		.loc 1 650 7 is_stmt 1 view .LVU426
 1418 00e8 9847     		blx	r3
 1419              	.LVL70:
 650:base/chip/Drivers/STM32F1xx_HAL_Driver/Src/stm32f1xx_hal_dma.c ****     }
 1420              		.loc 1 650 7 is_stmt 0 view .LVU427
 1421 00ea BDE7     		b	.L114
 1422              	.LVL71:
 1423              	.L129:
 642:base/chip/Drivers/STM32F1xx_HAL_Driver/Src/stm32f1xx_hal_dma.c **** 
 1424              		.loc 1 642 7 view .LVU428
 1425 00ec 2022     		movs	r2, #32
 1426 00ee F3E7     		b	.L121
 1427              	.L130:
 1428 00f0 4FF40072 		mov	r2, #512
 1429 00f4 F0E7     		b	.L121
 1430              	.L131:
 1431 00f6 4FF40052 		mov	r2, #8192
 1432 00fa EDE7     		b	.L121
 1433              	.L132:
 1434 00fc 4FF40032 		mov	r2, #131072
 1435 0100 EAE7     		b	.L121
 1436              	.LVL72:
 1437              	.L119:
 655:base/chip/Drivers/STM32F1xx_HAL_Driver/Src/stm32f1xx_hal_dma.c ****   {
 1438              		.loc 1 655 8 is_stmt 1 view .LVU429
 655:base/chip/Drivers/STM32F1xx_HAL_Driver/Src/stm32f1xx_hal_dma.c ****   {
 1439              		.loc 1 655 48 is_stmt 0 view .LVU430
 1440 0102 0823     		movs	r3, #8
 1441 0104 8B40     		lsls	r3, r3, r1
 655:base/chip/Drivers/STM32F1xx_HAL_Driver/Src/stm32f1xx_hal_dma.c ****   {
 1442              		.loc 1 655 11 view .LVU431
 1443 0106 1342     		tst	r3, r2
 1444 0108 AED0     		beq	.L114
 655:base/chip/Drivers/STM32F1xx_HAL_Driver/Src/stm32f1xx_hal_dma.c ****   {
 1445              		.loc 1 655 73 discriminator 1 view .LVU432
 1446 010a 15F0080F 		tst	r5, #8
 1447 010e ABD0     		beq	.L114
 660:base/chip/Drivers/STM32F1xx_HAL_Driver/Src/stm32f1xx_hal_dma.c **** 
 1448              		.loc 1 660 5 is_stmt 1 view .LVU433
 1449 0110 2368     		ldr	r3, [r4]
 1450 0112 23F00E03 		bic	r3, r3, #14
 1451 0116 2360     		str	r3, [r4]
 663:base/chip/Drivers/STM32F1xx_HAL_Driver/Src/stm32f1xx_hal_dma.c **** 
 1452              		.loc 1 663 5 view .LVU434
ARM GAS  /tmp/ccqu0Abp.s 			page 49


 663:base/chip/Drivers/STM32F1xx_HAL_Driver/Src/stm32f1xx_hal_dma.c **** 
 1453              		.loc 1 663 55 is_stmt 0 view .LVU435
 1454 0118 026C     		ldr	r2, [r0, #64]
 1455              	.LVL73:
 663:base/chip/Drivers/STM32F1xx_HAL_Driver/Src/stm32f1xx_hal_dma.c **** 
 1456              		.loc 1 663 9 view .LVU436
 1457 011a C16B     		ldr	r1, [r0, #60]
 663:base/chip/Drivers/STM32F1xx_HAL_Driver/Src/stm32f1xx_hal_dma.c **** 
 1458              		.loc 1 663 48 view .LVU437
 1459 011c 0123     		movs	r3, #1
 1460 011e 03FA02F2 		lsl	r2, r3, r2
 663:base/chip/Drivers/STM32F1xx_HAL_Driver/Src/stm32f1xx_hal_dma.c **** 
 1461              		.loc 1 663 32 view .LVU438
 1462 0122 4A60     		str	r2, [r1, #4]
 666:base/chip/Drivers/STM32F1xx_HAL_Driver/Src/stm32f1xx_hal_dma.c **** 
 1463              		.loc 1 666 5 is_stmt 1 view .LVU439
 666:base/chip/Drivers/STM32F1xx_HAL_Driver/Src/stm32f1xx_hal_dma.c **** 
 1464              		.loc 1 666 21 is_stmt 0 view .LVU440
 1465 0124 8363     		str	r3, [r0, #56]
 669:base/chip/Drivers/STM32F1xx_HAL_Driver/Src/stm32f1xx_hal_dma.c **** 
 1466              		.loc 1 669 5 is_stmt 1 view .LVU441
 669:base/chip/Drivers/STM32F1xx_HAL_Driver/Src/stm32f1xx_hal_dma.c **** 
 1467              		.loc 1 669 17 is_stmt 0 view .LVU442
 1468 0126 80F82130 		strb	r3, [r0, #33]
 672:base/chip/Drivers/STM32F1xx_HAL_Driver/Src/stm32f1xx_hal_dma.c **** 
 1469              		.loc 1 672 5 is_stmt 1 view .LVU443
 672:base/chip/Drivers/STM32F1xx_HAL_Driver/Src/stm32f1xx_hal_dma.c **** 
 1470              		.loc 1 672 5 view .LVU444
 1471 012a 0023     		movs	r3, #0
 1472 012c 80F82030 		strb	r3, [r0, #32]
 672:base/chip/Drivers/STM32F1xx_HAL_Driver/Src/stm32f1xx_hal_dma.c **** 
 1473              		.loc 1 672 5 view .LVU445
 674:base/chip/Drivers/STM32F1xx_HAL_Driver/Src/stm32f1xx_hal_dma.c ****     {
 1474              		.loc 1 674 5 view .LVU446
 674:base/chip/Drivers/STM32F1xx_HAL_Driver/Src/stm32f1xx_hal_dma.c ****     {
 1475              		.loc 1 674 13 is_stmt 0 view .LVU447
 1476 0130 036B     		ldr	r3, [r0, #48]
 674:base/chip/Drivers/STM32F1xx_HAL_Driver/Src/stm32f1xx_hal_dma.c ****     {
 1477              		.loc 1 674 8 view .LVU448
 1478 0132 002B     		cmp	r3, #0
 1479 0134 98D0     		beq	.L114
 677:base/chip/Drivers/STM32F1xx_HAL_Driver/Src/stm32f1xx_hal_dma.c ****     }
 1480              		.loc 1 677 7 is_stmt 1 view .LVU449
 1481 0136 9847     		blx	r3
 1482              	.LVL74:
 680:base/chip/Drivers/STM32F1xx_HAL_Driver/Src/stm32f1xx_hal_dma.c **** }
 1483              		.loc 1 680 3 view .LVU450
 1484 0138 96E7     		b	.L114
 1485              	.L138:
 1486 013a 00BF     		.align	2
 1487              	.L137:
 1488 013c 08000240 		.word	1073872904
 1489 0140 00000240 		.word	1073872896
 1490              		.cfi_endproc
 1491              	.LFE72:
 1493              		.section	.text.HAL_DMA_RegisterCallback,"ax",%progbits
 1494              		.align	1
ARM GAS  /tmp/ccqu0Abp.s 			page 50


 1495              		.global	HAL_DMA_RegisterCallback
 1496              		.syntax unified
 1497              		.thumb
 1498              		.thumb_func
 1499              		.fpu softvfp
 1501              	HAL_DMA_RegisterCallback:
 1502              	.LVL75:
 1503              	.LFB73:
 694:base/chip/Drivers/STM32F1xx_HAL_Driver/Src/stm32f1xx_hal_dma.c ****   HAL_StatusTypeDef status = HAL_OK;
 1504              		.loc 1 694 1 view -0
 1505              		.cfi_startproc
 1506              		@ args = 0, pretend = 0, frame = 0
 1507              		@ frame_needed = 0, uses_anonymous_args = 0
 1508              		@ link register save eliminated.
 694:base/chip/Drivers/STM32F1xx_HAL_Driver/Src/stm32f1xx_hal_dma.c ****   HAL_StatusTypeDef status = HAL_OK;
 1509              		.loc 1 694 1 is_stmt 0 view .LVU452
 1510 0000 0346     		mov	r3, r0
 695:base/chip/Drivers/STM32F1xx_HAL_Driver/Src/stm32f1xx_hal_dma.c ****   
 1511              		.loc 1 695 3 is_stmt 1 view .LVU453
 1512              	.LVL76:
 698:base/chip/Drivers/STM32F1xx_HAL_Driver/Src/stm32f1xx_hal_dma.c ****   
 1513              		.loc 1 698 3 view .LVU454
 698:base/chip/Drivers/STM32F1xx_HAL_Driver/Src/stm32f1xx_hal_dma.c ****   
 1514              		.loc 1 698 3 view .LVU455
 1515 0002 90F82000 		ldrb	r0, [r0, #32]	@ zero_extendqisi2
 1516              	.LVL77:
 698:base/chip/Drivers/STM32F1xx_HAL_Driver/Src/stm32f1xx_hal_dma.c ****   
 1517              		.loc 1 698 3 is_stmt 0 view .LVU456
 1518 0006 0128     		cmp	r0, #1
 1519 0008 1DD0     		beq	.L147
 698:base/chip/Drivers/STM32F1xx_HAL_Driver/Src/stm32f1xx_hal_dma.c ****   
 1520              		.loc 1 698 3 is_stmt 1 discriminator 2 view .LVU457
 1521 000a 0120     		movs	r0, #1
 1522 000c 83F82000 		strb	r0, [r3, #32]
 698:base/chip/Drivers/STM32F1xx_HAL_Driver/Src/stm32f1xx_hal_dma.c ****   
 1523              		.loc 1 698 3 discriminator 2 view .LVU458
 700:base/chip/Drivers/STM32F1xx_HAL_Driver/Src/stm32f1xx_hal_dma.c ****   {
 1524              		.loc 1 700 3 discriminator 2 view .LVU459
 700:base/chip/Drivers/STM32F1xx_HAL_Driver/Src/stm32f1xx_hal_dma.c ****   {
 1525              		.loc 1 700 33 is_stmt 0 discriminator 2 view .LVU460
 1526 0010 93F82100 		ldrb	r0, [r3, #33]	@ zero_extendqisi2
 700:base/chip/Drivers/STM32F1xx_HAL_Driver/Src/stm32f1xx_hal_dma.c ****   {
 1527              		.loc 1 700 5 discriminator 2 view .LVU461
 1528 0014 0128     		cmp	r0, #1
 1529 0016 04D0     		beq	.L150
 727:base/chip/Drivers/STM32F1xx_HAL_Driver/Src/stm32f1xx_hal_dma.c ****   } 
 1530              		.loc 1 727 12 view .LVU462
 1531 0018 0120     		movs	r0, #1
 1532              	.L141:
 1533              	.LVL78:
 731:base/chip/Drivers/STM32F1xx_HAL_Driver/Src/stm32f1xx_hal_dma.c ****   
 1534              		.loc 1 731 3 is_stmt 1 view .LVU463
 731:base/chip/Drivers/STM32F1xx_HAL_Driver/Src/stm32f1xx_hal_dma.c ****   
 1535              		.loc 1 731 3 view .LVU464
 1536 001a 0022     		movs	r2, #0
 1537              	.LVL79:
 731:base/chip/Drivers/STM32F1xx_HAL_Driver/Src/stm32f1xx_hal_dma.c ****   
ARM GAS  /tmp/ccqu0Abp.s 			page 51


 1538              		.loc 1 731 3 is_stmt 0 view .LVU465
 1539 001c 83F82020 		strb	r2, [r3, #32]
 731:base/chip/Drivers/STM32F1xx_HAL_Driver/Src/stm32f1xx_hal_dma.c ****   
 1540              		.loc 1 731 3 is_stmt 1 view .LVU466
 733:base/chip/Drivers/STM32F1xx_HAL_Driver/Src/stm32f1xx_hal_dma.c **** }
 1541              		.loc 1 733 3 view .LVU467
 733:base/chip/Drivers/STM32F1xx_HAL_Driver/Src/stm32f1xx_hal_dma.c **** }
 1542              		.loc 1 733 10 is_stmt 0 view .LVU468
 1543 0020 7047     		bx	lr
 1544              	.LVL80:
 1545              	.L150:
 702:base/chip/Drivers/STM32F1xx_HAL_Driver/Src/stm32f1xx_hal_dma.c ****     {
 1546              		.loc 1 702 5 is_stmt 1 view .LVU469
 1547 0022 0329     		cmp	r1, #3
 1548 0024 F9D8     		bhi	.L141
 1549 0026 DFE801F0 		tbb	[pc, r1]
 1550              	.L143:
 1551 002a 02       		.byte	(.L146-.L143)/2
 1552 002b 05       		.byte	(.L145-.L143)/2
 1553 002c 08       		.byte	(.L144-.L143)/2
 1554 002d 0B       		.byte	(.L142-.L143)/2
 1555              		.p2align 1
 1556              	.L146:
 705:base/chip/Drivers/STM32F1xx_HAL_Driver/Src/stm32f1xx_hal_dma.c ****       break;
 1557              		.loc 1 705 7 view .LVU470
 705:base/chip/Drivers/STM32F1xx_HAL_Driver/Src/stm32f1xx_hal_dma.c ****       break;
 1558              		.loc 1 705 30 is_stmt 0 view .LVU471
 1559 002e 9A62     		str	r2, [r3, #40]
 706:base/chip/Drivers/STM32F1xx_HAL_Driver/Src/stm32f1xx_hal_dma.c ****       
 1560              		.loc 1 706 7 is_stmt 1 view .LVU472
 695:base/chip/Drivers/STM32F1xx_HAL_Driver/Src/stm32f1xx_hal_dma.c ****   
 1561              		.loc 1 695 21 is_stmt 0 view .LVU473
 1562 0030 0846     		mov	r0, r1
 706:base/chip/Drivers/STM32F1xx_HAL_Driver/Src/stm32f1xx_hal_dma.c ****       
 1563              		.loc 1 706 7 view .LVU474
 1564 0032 F2E7     		b	.L141
 1565              	.L145:
 709:base/chip/Drivers/STM32F1xx_HAL_Driver/Src/stm32f1xx_hal_dma.c ****       break;         
 1566              		.loc 1 709 7 is_stmt 1 view .LVU475
 709:base/chip/Drivers/STM32F1xx_HAL_Driver/Src/stm32f1xx_hal_dma.c ****       break;         
 1567              		.loc 1 709 34 is_stmt 0 view .LVU476
 1568 0034 DA62     		str	r2, [r3, #44]
 710:base/chip/Drivers/STM32F1xx_HAL_Driver/Src/stm32f1xx_hal_dma.c **** 
 1569              		.loc 1 710 7 is_stmt 1 view .LVU477
 695:base/chip/Drivers/STM32F1xx_HAL_Driver/Src/stm32f1xx_hal_dma.c ****   
 1570              		.loc 1 695 21 is_stmt 0 view .LVU478
 1571 0036 0020     		movs	r0, #0
 710:base/chip/Drivers/STM32F1xx_HAL_Driver/Src/stm32f1xx_hal_dma.c **** 
 1572              		.loc 1 710 7 view .LVU479
 1573 0038 EFE7     		b	.L141
 1574              	.L144:
 713:base/chip/Drivers/STM32F1xx_HAL_Driver/Src/stm32f1xx_hal_dma.c ****       break;         
 1575              		.loc 1 713 7 is_stmt 1 view .LVU480
 713:base/chip/Drivers/STM32F1xx_HAL_Driver/Src/stm32f1xx_hal_dma.c ****       break;         
 1576              		.loc 1 713 31 is_stmt 0 view .LVU481
 1577 003a 1A63     		str	r2, [r3, #48]
 714:base/chip/Drivers/STM32F1xx_HAL_Driver/Src/stm32f1xx_hal_dma.c ****       
ARM GAS  /tmp/ccqu0Abp.s 			page 52


 1578              		.loc 1 714 7 is_stmt 1 view .LVU482
 695:base/chip/Drivers/STM32F1xx_HAL_Driver/Src/stm32f1xx_hal_dma.c ****   
 1579              		.loc 1 695 21 is_stmt 0 view .LVU483
 1580 003c 0020     		movs	r0, #0
 714:base/chip/Drivers/STM32F1xx_HAL_Driver/Src/stm32f1xx_hal_dma.c ****       
 1581              		.loc 1 714 7 view .LVU484
 1582 003e ECE7     		b	.L141
 1583              	.L142:
 717:base/chip/Drivers/STM32F1xx_HAL_Driver/Src/stm32f1xx_hal_dma.c ****       break; 
 1584              		.loc 1 717 7 is_stmt 1 view .LVU485
 717:base/chip/Drivers/STM32F1xx_HAL_Driver/Src/stm32f1xx_hal_dma.c ****       break; 
 1585              		.loc 1 717 31 is_stmt 0 view .LVU486
 1586 0040 5A63     		str	r2, [r3, #52]
 718:base/chip/Drivers/STM32F1xx_HAL_Driver/Src/stm32f1xx_hal_dma.c ****       
 1587              		.loc 1 718 7 is_stmt 1 view .LVU487
 695:base/chip/Drivers/STM32F1xx_HAL_Driver/Src/stm32f1xx_hal_dma.c ****   
 1588              		.loc 1 695 21 is_stmt 0 view .LVU488
 1589 0042 0020     		movs	r0, #0
 718:base/chip/Drivers/STM32F1xx_HAL_Driver/Src/stm32f1xx_hal_dma.c ****       
 1590              		.loc 1 718 7 view .LVU489
 1591 0044 E9E7     		b	.L141
 1592              	.L147:
 698:base/chip/Drivers/STM32F1xx_HAL_Driver/Src/stm32f1xx_hal_dma.c ****   
 1593              		.loc 1 698 3 view .LVU490
 1594 0046 0220     		movs	r0, #2
 734:base/chip/Drivers/STM32F1xx_HAL_Driver/Src/stm32f1xx_hal_dma.c **** 
 1595              		.loc 1 734 1 view .LVU491
 1596 0048 7047     		bx	lr
 1597              		.cfi_endproc
 1598              	.LFE73:
 1600              		.section	.text.HAL_DMA_UnRegisterCallback,"ax",%progbits
 1601              		.align	1
 1602              		.global	HAL_DMA_UnRegisterCallback
 1603              		.syntax unified
 1604              		.thumb
 1605              		.thumb_func
 1606              		.fpu softvfp
 1608              	HAL_DMA_UnRegisterCallback:
 1609              	.LVL81:
 1610              	.LFB74:
 745:base/chip/Drivers/STM32F1xx_HAL_Driver/Src/stm32f1xx_hal_dma.c ****   HAL_StatusTypeDef status = HAL_OK;
 1611              		.loc 1 745 1 is_stmt 1 view -0
 1612              		.cfi_startproc
 1613              		@ args = 0, pretend = 0, frame = 0
 1614              		@ frame_needed = 0, uses_anonymous_args = 0
 1615              		@ link register save eliminated.
 745:base/chip/Drivers/STM32F1xx_HAL_Driver/Src/stm32f1xx_hal_dma.c ****   HAL_StatusTypeDef status = HAL_OK;
 1616              		.loc 1 745 1 is_stmt 0 view .LVU493
 1617 0000 0346     		mov	r3, r0
 746:base/chip/Drivers/STM32F1xx_HAL_Driver/Src/stm32f1xx_hal_dma.c **** 
 1618              		.loc 1 746 3 is_stmt 1 view .LVU494
 1619              	.LVL82:
 749:base/chip/Drivers/STM32F1xx_HAL_Driver/Src/stm32f1xx_hal_dma.c ****   
 1620              		.loc 1 749 3 view .LVU495
 749:base/chip/Drivers/STM32F1xx_HAL_Driver/Src/stm32f1xx_hal_dma.c ****   
 1621              		.loc 1 749 3 view .LVU496
 1622 0002 90F82020 		ldrb	r2, [r0, #32]	@ zero_extendqisi2
ARM GAS  /tmp/ccqu0Abp.s 			page 53


 1623 0006 012A     		cmp	r2, #1
 1624 0008 25D0     		beq	.L160
 749:base/chip/Drivers/STM32F1xx_HAL_Driver/Src/stm32f1xx_hal_dma.c ****   
 1625              		.loc 1 749 3 discriminator 2 view .LVU497
 1626 000a 0122     		movs	r2, #1
 1627 000c 80F82020 		strb	r2, [r0, #32]
 749:base/chip/Drivers/STM32F1xx_HAL_Driver/Src/stm32f1xx_hal_dma.c ****   
 1628              		.loc 1 749 3 discriminator 2 view .LVU498
 751:base/chip/Drivers/STM32F1xx_HAL_Driver/Src/stm32f1xx_hal_dma.c ****   {
 1629              		.loc 1 751 3 discriminator 2 view .LVU499
 751:base/chip/Drivers/STM32F1xx_HAL_Driver/Src/stm32f1xx_hal_dma.c ****   {
 1630              		.loc 1 751 33 is_stmt 0 discriminator 2 view .LVU500
 1631 0010 90F82100 		ldrb	r0, [r0, #33]	@ zero_extendqisi2
 1632              	.LVL83:
 751:base/chip/Drivers/STM32F1xx_HAL_Driver/Src/stm32f1xx_hal_dma.c ****   {
 1633              		.loc 1 751 5 discriminator 2 view .LVU501
 1634 0014 9042     		cmp	r0, r2
 1635 0016 04D0     		beq	.L163
 785:base/chip/Drivers/STM32F1xx_HAL_Driver/Src/stm32f1xx_hal_dma.c ****   } 
 1636              		.loc 1 785 12 view .LVU502
 1637 0018 0120     		movs	r0, #1
 1638              	.L153:
 1639              	.LVL84:
 789:base/chip/Drivers/STM32F1xx_HAL_Driver/Src/stm32f1xx_hal_dma.c ****   
 1640              		.loc 1 789 3 is_stmt 1 view .LVU503
 789:base/chip/Drivers/STM32F1xx_HAL_Driver/Src/stm32f1xx_hal_dma.c ****   
 1641              		.loc 1 789 3 view .LVU504
 1642 001a 0022     		movs	r2, #0
 1643 001c 83F82020 		strb	r2, [r3, #32]
 789:base/chip/Drivers/STM32F1xx_HAL_Driver/Src/stm32f1xx_hal_dma.c ****   
 1644              		.loc 1 789 3 view .LVU505
 791:base/chip/Drivers/STM32F1xx_HAL_Driver/Src/stm32f1xx_hal_dma.c **** }
 1645              		.loc 1 791 3 view .LVU506
 791:base/chip/Drivers/STM32F1xx_HAL_Driver/Src/stm32f1xx_hal_dma.c **** }
 1646              		.loc 1 791 10 is_stmt 0 view .LVU507
 1647 0020 7047     		bx	lr
 1648              	.LVL85:
 1649              	.L163:
 753:base/chip/Drivers/STM32F1xx_HAL_Driver/Src/stm32f1xx_hal_dma.c ****     {
 1650              		.loc 1 753 5 is_stmt 1 view .LVU508
 1651 0022 0429     		cmp	r1, #4
 1652 0024 F9D8     		bhi	.L153
 1653 0026 DFE801F0 		tbb	[pc, r1]
 1654              	.L155:
 1655 002a 03       		.byte	(.L159-.L155)/2
 1656 002b 07       		.byte	(.L158-.L155)/2
 1657 002c 0A       		.byte	(.L157-.L155)/2
 1658 002d 0D       		.byte	(.L156-.L155)/2
 1659 002e 10       		.byte	(.L154-.L155)/2
 1660 002f 00       		.p2align 1
 1661              	.L159:
 756:base/chip/Drivers/STM32F1xx_HAL_Driver/Src/stm32f1xx_hal_dma.c ****       break;
 1662              		.loc 1 756 7 view .LVU509
 756:base/chip/Drivers/STM32F1xx_HAL_Driver/Src/stm32f1xx_hal_dma.c ****       break;
 1663              		.loc 1 756 30 is_stmt 0 view .LVU510
 1664 0030 0022     		movs	r2, #0
 1665 0032 9A62     		str	r2, [r3, #40]
ARM GAS  /tmp/ccqu0Abp.s 			page 54


 757:base/chip/Drivers/STM32F1xx_HAL_Driver/Src/stm32f1xx_hal_dma.c **** 
 1666              		.loc 1 757 7 is_stmt 1 view .LVU511
 746:base/chip/Drivers/STM32F1xx_HAL_Driver/Src/stm32f1xx_hal_dma.c **** 
 1667              		.loc 1 746 21 is_stmt 0 view .LVU512
 1668 0034 0846     		mov	r0, r1
 757:base/chip/Drivers/STM32F1xx_HAL_Driver/Src/stm32f1xx_hal_dma.c **** 
 1669              		.loc 1 757 7 view .LVU513
 1670 0036 F0E7     		b	.L153
 1671              	.L158:
 760:base/chip/Drivers/STM32F1xx_HAL_Driver/Src/stm32f1xx_hal_dma.c ****       break;         
 1672              		.loc 1 760 7 is_stmt 1 view .LVU514
 760:base/chip/Drivers/STM32F1xx_HAL_Driver/Src/stm32f1xx_hal_dma.c ****       break;         
 1673              		.loc 1 760 34 is_stmt 0 view .LVU515
 1674 0038 0020     		movs	r0, #0
 1675 003a D862     		str	r0, [r3, #44]
 761:base/chip/Drivers/STM32F1xx_HAL_Driver/Src/stm32f1xx_hal_dma.c **** 
 1676              		.loc 1 761 7 is_stmt 1 view .LVU516
 1677 003c EDE7     		b	.L153
 1678              	.L157:
 764:base/chip/Drivers/STM32F1xx_HAL_Driver/Src/stm32f1xx_hal_dma.c ****       break;         
 1679              		.loc 1 764 7 view .LVU517
 764:base/chip/Drivers/STM32F1xx_HAL_Driver/Src/stm32f1xx_hal_dma.c ****       break;         
 1680              		.loc 1 764 31 is_stmt 0 view .LVU518
 1681 003e 0020     		movs	r0, #0
 1682 0040 1863     		str	r0, [r3, #48]
 765:base/chip/Drivers/STM32F1xx_HAL_Driver/Src/stm32f1xx_hal_dma.c **** 
 1683              		.loc 1 765 7 is_stmt 1 view .LVU519
 1684 0042 EAE7     		b	.L153
 1685              	.L156:
 768:base/chip/Drivers/STM32F1xx_HAL_Driver/Src/stm32f1xx_hal_dma.c ****       break; 
 1686              		.loc 1 768 7 view .LVU520
 768:base/chip/Drivers/STM32F1xx_HAL_Driver/Src/stm32f1xx_hal_dma.c ****       break; 
 1687              		.loc 1 768 31 is_stmt 0 view .LVU521
 1688 0044 0020     		movs	r0, #0
 1689 0046 5863     		str	r0, [r3, #52]
 769:base/chip/Drivers/STM32F1xx_HAL_Driver/Src/stm32f1xx_hal_dma.c **** 
 1690              		.loc 1 769 7 is_stmt 1 view .LVU522
 1691 0048 E7E7     		b	.L153
 1692              	.L154:
 772:base/chip/Drivers/STM32F1xx_HAL_Driver/Src/stm32f1xx_hal_dma.c ****       hdma->XferHalfCpltCallback = NULL;
 1693              		.loc 1 772 7 view .LVU523
 772:base/chip/Drivers/STM32F1xx_HAL_Driver/Src/stm32f1xx_hal_dma.c ****       hdma->XferHalfCpltCallback = NULL;
 1694              		.loc 1 772 30 is_stmt 0 view .LVU524
 1695 004a 0020     		movs	r0, #0
 1696 004c 9862     		str	r0, [r3, #40]
 773:base/chip/Drivers/STM32F1xx_HAL_Driver/Src/stm32f1xx_hal_dma.c ****       hdma->XferErrorCallback = NULL;
 1697              		.loc 1 773 7 is_stmt 1 view .LVU525
 773:base/chip/Drivers/STM32F1xx_HAL_Driver/Src/stm32f1xx_hal_dma.c ****       hdma->XferErrorCallback = NULL;
 1698              		.loc 1 773 34 is_stmt 0 view .LVU526
 1699 004e D862     		str	r0, [r3, #44]
 774:base/chip/Drivers/STM32F1xx_HAL_Driver/Src/stm32f1xx_hal_dma.c ****       hdma->XferAbortCallback = NULL;
 1700              		.loc 1 774 7 is_stmt 1 view .LVU527
 774:base/chip/Drivers/STM32F1xx_HAL_Driver/Src/stm32f1xx_hal_dma.c ****       hdma->XferAbortCallback = NULL;
 1701              		.loc 1 774 31 is_stmt 0 view .LVU528
 1702 0050 1863     		str	r0, [r3, #48]
 775:base/chip/Drivers/STM32F1xx_HAL_Driver/Src/stm32f1xx_hal_dma.c ****       break; 
 1703              		.loc 1 775 7 is_stmt 1 view .LVU529
ARM GAS  /tmp/ccqu0Abp.s 			page 55


 775:base/chip/Drivers/STM32F1xx_HAL_Driver/Src/stm32f1xx_hal_dma.c ****       break; 
 1704              		.loc 1 775 31 is_stmt 0 view .LVU530
 1705 0052 5863     		str	r0, [r3, #52]
 776:base/chip/Drivers/STM32F1xx_HAL_Driver/Src/stm32f1xx_hal_dma.c **** 
 1706              		.loc 1 776 7 is_stmt 1 view .LVU531
 1707 0054 E1E7     		b	.L153
 1708              	.LVL86:
 1709              	.L160:
 749:base/chip/Drivers/STM32F1xx_HAL_Driver/Src/stm32f1xx_hal_dma.c ****   
 1710              		.loc 1 749 3 is_stmt 0 view .LVU532
 1711 0056 0220     		movs	r0, #2
 1712              	.LVL87:
 792:base/chip/Drivers/STM32F1xx_HAL_Driver/Src/stm32f1xx_hal_dma.c ****   
 1713              		.loc 1 792 1 view .LVU533
 1714 0058 7047     		bx	lr
 1715              		.cfi_endproc
 1716              	.LFE74:
 1718              		.section	.text.HAL_DMA_GetState,"ax",%progbits
 1719              		.align	1
 1720              		.global	HAL_DMA_GetState
 1721              		.syntax unified
 1722              		.thumb
 1723              		.thumb_func
 1724              		.fpu softvfp
 1726              	HAL_DMA_GetState:
 1727              	.LVL88:
 1728              	.LFB75:
 821:base/chip/Drivers/STM32F1xx_HAL_Driver/Src/stm32f1xx_hal_dma.c ****   /* Return DMA handle state */
 1729              		.loc 1 821 1 is_stmt 1 view -0
 1730              		.cfi_startproc
 1731              		@ args = 0, pretend = 0, frame = 0
 1732              		@ frame_needed = 0, uses_anonymous_args = 0
 1733              		@ link register save eliminated.
 823:base/chip/Drivers/STM32F1xx_HAL_Driver/Src/stm32f1xx_hal_dma.c **** }
 1734              		.loc 1 823 3 view .LVU535
 824:base/chip/Drivers/STM32F1xx_HAL_Driver/Src/stm32f1xx_hal_dma.c **** 
 1735              		.loc 1 824 1 is_stmt 0 view .LVU536
 1736 0000 90F82100 		ldrb	r0, [r0, #33]	@ zero_extendqisi2
 1737              	.LVL89:
 824:base/chip/Drivers/STM32F1xx_HAL_Driver/Src/stm32f1xx_hal_dma.c **** 
 1738              		.loc 1 824 1 view .LVU537
 1739 0004 7047     		bx	lr
 1740              		.cfi_endproc
 1741              	.LFE75:
 1743              		.section	.text.HAL_DMA_GetError,"ax",%progbits
 1744              		.align	1
 1745              		.global	HAL_DMA_GetError
 1746              		.syntax unified
 1747              		.thumb
 1748              		.thumb_func
 1749              		.fpu softvfp
 1751              	HAL_DMA_GetError:
 1752              	.LVL90:
 1753              	.LFB76:
 833:base/chip/Drivers/STM32F1xx_HAL_Driver/Src/stm32f1xx_hal_dma.c ****   return hdma->ErrorCode;
 1754              		.loc 1 833 1 is_stmt 1 view -0
 1755              		.cfi_startproc
ARM GAS  /tmp/ccqu0Abp.s 			page 56


 1756              		@ args = 0, pretend = 0, frame = 0
 1757              		@ frame_needed = 0, uses_anonymous_args = 0
 1758              		@ link register save eliminated.
 834:base/chip/Drivers/STM32F1xx_HAL_Driver/Src/stm32f1xx_hal_dma.c **** }
 1759              		.loc 1 834 3 view .LVU539
 834:base/chip/Drivers/STM32F1xx_HAL_Driver/Src/stm32f1xx_hal_dma.c **** }
 1760              		.loc 1 834 14 is_stmt 0 view .LVU540
 1761 0000 806B     		ldr	r0, [r0, #56]
 1762              	.LVL91:
 835:base/chip/Drivers/STM32F1xx_HAL_Driver/Src/stm32f1xx_hal_dma.c **** 
 1763              		.loc 1 835 1 view .LVU541
 1764 0002 7047     		bx	lr
 1765              		.cfi_endproc
 1766              	.LFE76:
 1768              		.text
 1769              	.Letext0:
 1770              		.file 2 "/usr/arm-none-eabi/include/machine/_default_types.h"
 1771              		.file 3 "/usr/arm-none-eabi/include/sys/_stdint.h"
 1772              		.file 4 "base/chip/Drivers/CMSIS/Device/ST/STM32F1xx/Include/stm32f103x6.h"
 1773              		.file 5 "base/chip/Drivers/CMSIS/Device/ST/STM32F1xx/Include/stm32f1xx.h"
 1774              		.file 6 "base/chip/Drivers/STM32F1xx_HAL_Driver/Inc/stm32f1xx_hal_def.h"
 1775              		.file 7 "base/chip/Drivers/STM32F1xx_HAL_Driver/Inc/stm32f1xx_hal_dma.h"
 1776              		.file 8 "base/chip/Drivers/STM32F1xx_HAL_Driver/Inc/stm32f1xx_hal.h"
ARM GAS  /tmp/ccqu0Abp.s 			page 57

