ARM GAS  /tmp/ccXI2Tmb.s 			page 1


   1              		.cpu cortex-m3
   2              		.eabi_attribute 20, 1
   3              		.eabi_attribute 21, 1
   4              		.eabi_attribute 23, 3
   5              		.eabi_attribute 24, 1
   6              		.eabi_attribute 25, 1
   7              		.eabi_attribute 26, 1
   8              		.eabi_attribute 30, 1
   9              		.eabi_attribute 34, 1
  10              		.eabi_attribute 18, 4
  11              		.file	"stm32f1xx_hal_exti.c"
  12              		.text
  13              	.Ltext0:
  14              		.cfi_sections	.debug_frame
  15              		.section	.text.HAL_EXTI_SetConfigLine,"ax",%progbits
  16              		.align	1
  17              		.global	HAL_EXTI_SetConfigLine
  18              		.arch armv7-m
  19              		.syntax unified
  20              		.thumb
  21              		.thumb_func
  22              		.fpu softvfp
  24              	HAL_EXTI_SetConfigLine:
  25              	.LVL0:
  26              	.LFB65:
  27              		.file 1 "base/chip/Drivers/STM32F1xx_HAL_Driver/Src/stm32f1xx_hal_exti.c"
   1:base/chip/Drivers/STM32F1xx_HAL_Driver/Src/stm32f1xx_hal_exti.c **** /**
   2:base/chip/Drivers/STM32F1xx_HAL_Driver/Src/stm32f1xx_hal_exti.c ****   ******************************************************************************
   3:base/chip/Drivers/STM32F1xx_HAL_Driver/Src/stm32f1xx_hal_exti.c ****   * @file    stm32f1xx_hal_exti.c
   4:base/chip/Drivers/STM32F1xx_HAL_Driver/Src/stm32f1xx_hal_exti.c ****   * @author  MCD Application Team
   5:base/chip/Drivers/STM32F1xx_HAL_Driver/Src/stm32f1xx_hal_exti.c ****   * @brief   EXTI HAL module driver.
   6:base/chip/Drivers/STM32F1xx_HAL_Driver/Src/stm32f1xx_hal_exti.c ****   *          This file provides firmware functions to manage the following
   7:base/chip/Drivers/STM32F1xx_HAL_Driver/Src/stm32f1xx_hal_exti.c ****   *          functionalities of the Extended Interrupts and events controller (EXTI) peripheral:
   8:base/chip/Drivers/STM32F1xx_HAL_Driver/Src/stm32f1xx_hal_exti.c ****   *           + Initialization and de-initialization functions
   9:base/chip/Drivers/STM32F1xx_HAL_Driver/Src/stm32f1xx_hal_exti.c ****   *           + IO operation functions
  10:base/chip/Drivers/STM32F1xx_HAL_Driver/Src/stm32f1xx_hal_exti.c ****   *
  11:base/chip/Drivers/STM32F1xx_HAL_Driver/Src/stm32f1xx_hal_exti.c ****   @verbatim
  12:base/chip/Drivers/STM32F1xx_HAL_Driver/Src/stm32f1xx_hal_exti.c ****   ==============================================================================
  13:base/chip/Drivers/STM32F1xx_HAL_Driver/Src/stm32f1xx_hal_exti.c ****                     ##### EXTI Peripheral features #####
  14:base/chip/Drivers/STM32F1xx_HAL_Driver/Src/stm32f1xx_hal_exti.c ****   ==============================================================================
  15:base/chip/Drivers/STM32F1xx_HAL_Driver/Src/stm32f1xx_hal_exti.c ****   [..]
  16:base/chip/Drivers/STM32F1xx_HAL_Driver/Src/stm32f1xx_hal_exti.c ****     (+) Each Exti line can be configured within this driver.
  17:base/chip/Drivers/STM32F1xx_HAL_Driver/Src/stm32f1xx_hal_exti.c **** 
  18:base/chip/Drivers/STM32F1xx_HAL_Driver/Src/stm32f1xx_hal_exti.c ****     (+) Exti line can be configured in 3 different modes
  19:base/chip/Drivers/STM32F1xx_HAL_Driver/Src/stm32f1xx_hal_exti.c ****         (++) Interrupt
  20:base/chip/Drivers/STM32F1xx_HAL_Driver/Src/stm32f1xx_hal_exti.c ****         (++) Event
  21:base/chip/Drivers/STM32F1xx_HAL_Driver/Src/stm32f1xx_hal_exti.c ****         (++) Both of them
  22:base/chip/Drivers/STM32F1xx_HAL_Driver/Src/stm32f1xx_hal_exti.c **** 
  23:base/chip/Drivers/STM32F1xx_HAL_Driver/Src/stm32f1xx_hal_exti.c ****     (+) Configurable Exti lines can be configured with 3 different triggers
  24:base/chip/Drivers/STM32F1xx_HAL_Driver/Src/stm32f1xx_hal_exti.c ****         (++) Rising
  25:base/chip/Drivers/STM32F1xx_HAL_Driver/Src/stm32f1xx_hal_exti.c ****         (++) Falling
  26:base/chip/Drivers/STM32F1xx_HAL_Driver/Src/stm32f1xx_hal_exti.c ****         (++) Both of them
  27:base/chip/Drivers/STM32F1xx_HAL_Driver/Src/stm32f1xx_hal_exti.c **** 
  28:base/chip/Drivers/STM32F1xx_HAL_Driver/Src/stm32f1xx_hal_exti.c ****     (+) When set in interrupt mode, configurable Exti lines have two different
  29:base/chip/Drivers/STM32F1xx_HAL_Driver/Src/stm32f1xx_hal_exti.c ****         interrupts pending registers which allow to distinguish which transition
  30:base/chip/Drivers/STM32F1xx_HAL_Driver/Src/stm32f1xx_hal_exti.c ****         occurs:
  31:base/chip/Drivers/STM32F1xx_HAL_Driver/Src/stm32f1xx_hal_exti.c ****         (++) Rising edge pending interrupt
ARM GAS  /tmp/ccXI2Tmb.s 			page 2


  32:base/chip/Drivers/STM32F1xx_HAL_Driver/Src/stm32f1xx_hal_exti.c ****         (++) Falling
  33:base/chip/Drivers/STM32F1xx_HAL_Driver/Src/stm32f1xx_hal_exti.c **** 
  34:base/chip/Drivers/STM32F1xx_HAL_Driver/Src/stm32f1xx_hal_exti.c ****     (+) Exti lines 0 to 15 are linked to gpio pin number 0 to 15. Gpio port can
  35:base/chip/Drivers/STM32F1xx_HAL_Driver/Src/stm32f1xx_hal_exti.c ****         be selected through multiplexer.
  36:base/chip/Drivers/STM32F1xx_HAL_Driver/Src/stm32f1xx_hal_exti.c **** 
  37:base/chip/Drivers/STM32F1xx_HAL_Driver/Src/stm32f1xx_hal_exti.c ****                      ##### How to use this driver #####
  38:base/chip/Drivers/STM32F1xx_HAL_Driver/Src/stm32f1xx_hal_exti.c ****   ==============================================================================
  39:base/chip/Drivers/STM32F1xx_HAL_Driver/Src/stm32f1xx_hal_exti.c ****   [..]
  40:base/chip/Drivers/STM32F1xx_HAL_Driver/Src/stm32f1xx_hal_exti.c **** 
  41:base/chip/Drivers/STM32F1xx_HAL_Driver/Src/stm32f1xx_hal_exti.c ****     (#) Configure the EXTI line using HAL_EXTI_SetConfigLine().
  42:base/chip/Drivers/STM32F1xx_HAL_Driver/Src/stm32f1xx_hal_exti.c ****         (++) Choose the interrupt line number by setting "Line" member from
  43:base/chip/Drivers/STM32F1xx_HAL_Driver/Src/stm32f1xx_hal_exti.c ****              EXTI_ConfigTypeDef structure.
  44:base/chip/Drivers/STM32F1xx_HAL_Driver/Src/stm32f1xx_hal_exti.c ****         (++) Configure the interrupt and/or event mode using "Mode" member from
  45:base/chip/Drivers/STM32F1xx_HAL_Driver/Src/stm32f1xx_hal_exti.c ****              EXTI_ConfigTypeDef structure.
  46:base/chip/Drivers/STM32F1xx_HAL_Driver/Src/stm32f1xx_hal_exti.c ****         (++) For configurable lines, configure rising and/or falling trigger
  47:base/chip/Drivers/STM32F1xx_HAL_Driver/Src/stm32f1xx_hal_exti.c ****              "Trigger" member from EXTI_ConfigTypeDef structure.
  48:base/chip/Drivers/STM32F1xx_HAL_Driver/Src/stm32f1xx_hal_exti.c ****         (++) For Exti lines linked to gpio, choose gpio port using "GPIOSel"
  49:base/chip/Drivers/STM32F1xx_HAL_Driver/Src/stm32f1xx_hal_exti.c ****              member from GPIO_InitTypeDef structure.
  50:base/chip/Drivers/STM32F1xx_HAL_Driver/Src/stm32f1xx_hal_exti.c **** 
  51:base/chip/Drivers/STM32F1xx_HAL_Driver/Src/stm32f1xx_hal_exti.c ****     (#) Get current Exti configuration of a dedicated line using
  52:base/chip/Drivers/STM32F1xx_HAL_Driver/Src/stm32f1xx_hal_exti.c ****         HAL_EXTI_GetConfigLine().
  53:base/chip/Drivers/STM32F1xx_HAL_Driver/Src/stm32f1xx_hal_exti.c ****         (++) Provide exiting handle as parameter.
  54:base/chip/Drivers/STM32F1xx_HAL_Driver/Src/stm32f1xx_hal_exti.c ****         (++) Provide pointer on EXTI_ConfigTypeDef structure as second parameter.
  55:base/chip/Drivers/STM32F1xx_HAL_Driver/Src/stm32f1xx_hal_exti.c **** 
  56:base/chip/Drivers/STM32F1xx_HAL_Driver/Src/stm32f1xx_hal_exti.c ****     (#) Clear Exti configuration of a dedicated line using HAL_EXTI_GetConfigLine().
  57:base/chip/Drivers/STM32F1xx_HAL_Driver/Src/stm32f1xx_hal_exti.c ****         (++) Provide exiting handle as parameter.
  58:base/chip/Drivers/STM32F1xx_HAL_Driver/Src/stm32f1xx_hal_exti.c **** 
  59:base/chip/Drivers/STM32F1xx_HAL_Driver/Src/stm32f1xx_hal_exti.c ****     (#) Register callback to treat Exti interrupts using HAL_EXTI_RegisterCallback().
  60:base/chip/Drivers/STM32F1xx_HAL_Driver/Src/stm32f1xx_hal_exti.c ****         (++) Provide exiting handle as first parameter.
  61:base/chip/Drivers/STM32F1xx_HAL_Driver/Src/stm32f1xx_hal_exti.c ****         (++) Provide which callback will be registered using one value from
  62:base/chip/Drivers/STM32F1xx_HAL_Driver/Src/stm32f1xx_hal_exti.c ****              EXTI_CallbackIDTypeDef.
  63:base/chip/Drivers/STM32F1xx_HAL_Driver/Src/stm32f1xx_hal_exti.c ****         (++) Provide callback function pointer.
  64:base/chip/Drivers/STM32F1xx_HAL_Driver/Src/stm32f1xx_hal_exti.c **** 
  65:base/chip/Drivers/STM32F1xx_HAL_Driver/Src/stm32f1xx_hal_exti.c ****     (#) Get interrupt pending bit using HAL_EXTI_GetPending().
  66:base/chip/Drivers/STM32F1xx_HAL_Driver/Src/stm32f1xx_hal_exti.c **** 
  67:base/chip/Drivers/STM32F1xx_HAL_Driver/Src/stm32f1xx_hal_exti.c ****     (#) Clear interrupt pending bit using HAL_EXTI_GetPending().
  68:base/chip/Drivers/STM32F1xx_HAL_Driver/Src/stm32f1xx_hal_exti.c **** 
  69:base/chip/Drivers/STM32F1xx_HAL_Driver/Src/stm32f1xx_hal_exti.c ****     (#) Generate software interrupt using HAL_EXTI_GenerateSWI().
  70:base/chip/Drivers/STM32F1xx_HAL_Driver/Src/stm32f1xx_hal_exti.c **** 
  71:base/chip/Drivers/STM32F1xx_HAL_Driver/Src/stm32f1xx_hal_exti.c ****   @endverbatim
  72:base/chip/Drivers/STM32F1xx_HAL_Driver/Src/stm32f1xx_hal_exti.c ****   ******************************************************************************
  73:base/chip/Drivers/STM32F1xx_HAL_Driver/Src/stm32f1xx_hal_exti.c ****   * @attention
  74:base/chip/Drivers/STM32F1xx_HAL_Driver/Src/stm32f1xx_hal_exti.c ****   *
  75:base/chip/Drivers/STM32F1xx_HAL_Driver/Src/stm32f1xx_hal_exti.c ****   * <h2><center>&copy; Copyright (c) 2019 STMicroelectronics.
  76:base/chip/Drivers/STM32F1xx_HAL_Driver/Src/stm32f1xx_hal_exti.c ****   * All rights reserved.</center></h2>
  77:base/chip/Drivers/STM32F1xx_HAL_Driver/Src/stm32f1xx_hal_exti.c ****   *
  78:base/chip/Drivers/STM32F1xx_HAL_Driver/Src/stm32f1xx_hal_exti.c ****   * This software component is licensed by ST under BSD 3-Clause license,
  79:base/chip/Drivers/STM32F1xx_HAL_Driver/Src/stm32f1xx_hal_exti.c ****   * the "License"; You may not use this file except in compliance with the
  80:base/chip/Drivers/STM32F1xx_HAL_Driver/Src/stm32f1xx_hal_exti.c ****   * License. You may obtain a copy of the License at:
  81:base/chip/Drivers/STM32F1xx_HAL_Driver/Src/stm32f1xx_hal_exti.c ****   *                        opensource.org/licenses/BSD-3-Clause
  82:base/chip/Drivers/STM32F1xx_HAL_Driver/Src/stm32f1xx_hal_exti.c ****   *
  83:base/chip/Drivers/STM32F1xx_HAL_Driver/Src/stm32f1xx_hal_exti.c ****   ******************************************************************************
  84:base/chip/Drivers/STM32F1xx_HAL_Driver/Src/stm32f1xx_hal_exti.c ****   */
  85:base/chip/Drivers/STM32F1xx_HAL_Driver/Src/stm32f1xx_hal_exti.c **** 
  86:base/chip/Drivers/STM32F1xx_HAL_Driver/Src/stm32f1xx_hal_exti.c **** /* Includes ------------------------------------------------------------------*/
  87:base/chip/Drivers/STM32F1xx_HAL_Driver/Src/stm32f1xx_hal_exti.c **** #include "stm32f1xx_hal.h"
  88:base/chip/Drivers/STM32F1xx_HAL_Driver/Src/stm32f1xx_hal_exti.c **** 
ARM GAS  /tmp/ccXI2Tmb.s 			page 3


  89:base/chip/Drivers/STM32F1xx_HAL_Driver/Src/stm32f1xx_hal_exti.c **** /** @addtogroup STM32F1xx_HAL_Driver
  90:base/chip/Drivers/STM32F1xx_HAL_Driver/Src/stm32f1xx_hal_exti.c ****   * @{
  91:base/chip/Drivers/STM32F1xx_HAL_Driver/Src/stm32f1xx_hal_exti.c ****   */
  92:base/chip/Drivers/STM32F1xx_HAL_Driver/Src/stm32f1xx_hal_exti.c **** 
  93:base/chip/Drivers/STM32F1xx_HAL_Driver/Src/stm32f1xx_hal_exti.c **** /** @addtogroup EXTI
  94:base/chip/Drivers/STM32F1xx_HAL_Driver/Src/stm32f1xx_hal_exti.c ****   * @{
  95:base/chip/Drivers/STM32F1xx_HAL_Driver/Src/stm32f1xx_hal_exti.c ****   */
  96:base/chip/Drivers/STM32F1xx_HAL_Driver/Src/stm32f1xx_hal_exti.c **** /** MISRA C:2012 deviation rule has been granted for following rule:
  97:base/chip/Drivers/STM32F1xx_HAL_Driver/Src/stm32f1xx_hal_exti.c ****   * Rule-18.1_b - Medium: Array `EXTICR' 1st subscript interval [0,7] may be out
  98:base/chip/Drivers/STM32F1xx_HAL_Driver/Src/stm32f1xx_hal_exti.c ****   * of bounds [0,3] in following API :
  99:base/chip/Drivers/STM32F1xx_HAL_Driver/Src/stm32f1xx_hal_exti.c ****   * HAL_EXTI_SetConfigLine
 100:base/chip/Drivers/STM32F1xx_HAL_Driver/Src/stm32f1xx_hal_exti.c ****   * HAL_EXTI_GetConfigLine
 101:base/chip/Drivers/STM32F1xx_HAL_Driver/Src/stm32f1xx_hal_exti.c ****   * HAL_EXTI_ClearConfigLine
 102:base/chip/Drivers/STM32F1xx_HAL_Driver/Src/stm32f1xx_hal_exti.c ****   */
 103:base/chip/Drivers/STM32F1xx_HAL_Driver/Src/stm32f1xx_hal_exti.c **** 
 104:base/chip/Drivers/STM32F1xx_HAL_Driver/Src/stm32f1xx_hal_exti.c **** #ifdef HAL_EXTI_MODULE_ENABLED
 105:base/chip/Drivers/STM32F1xx_HAL_Driver/Src/stm32f1xx_hal_exti.c **** 
 106:base/chip/Drivers/STM32F1xx_HAL_Driver/Src/stm32f1xx_hal_exti.c **** /* Private typedef -----------------------------------------------------------*/
 107:base/chip/Drivers/STM32F1xx_HAL_Driver/Src/stm32f1xx_hal_exti.c **** /* Private defines -----------------------------------------------------------*/
 108:base/chip/Drivers/STM32F1xx_HAL_Driver/Src/stm32f1xx_hal_exti.c **** /** @defgroup EXTI_Private_Constants EXTI Private Constants
 109:base/chip/Drivers/STM32F1xx_HAL_Driver/Src/stm32f1xx_hal_exti.c ****   * @{
 110:base/chip/Drivers/STM32F1xx_HAL_Driver/Src/stm32f1xx_hal_exti.c ****   */
 111:base/chip/Drivers/STM32F1xx_HAL_Driver/Src/stm32f1xx_hal_exti.c **** 
 112:base/chip/Drivers/STM32F1xx_HAL_Driver/Src/stm32f1xx_hal_exti.c **** /**
 113:base/chip/Drivers/STM32F1xx_HAL_Driver/Src/stm32f1xx_hal_exti.c ****   * @}
 114:base/chip/Drivers/STM32F1xx_HAL_Driver/Src/stm32f1xx_hal_exti.c ****   */
 115:base/chip/Drivers/STM32F1xx_HAL_Driver/Src/stm32f1xx_hal_exti.c **** 
 116:base/chip/Drivers/STM32F1xx_HAL_Driver/Src/stm32f1xx_hal_exti.c **** /* Private macros ------------------------------------------------------------*/
 117:base/chip/Drivers/STM32F1xx_HAL_Driver/Src/stm32f1xx_hal_exti.c **** /* Private variables ---------------------------------------------------------*/
 118:base/chip/Drivers/STM32F1xx_HAL_Driver/Src/stm32f1xx_hal_exti.c **** /* Private function prototypes -----------------------------------------------*/
 119:base/chip/Drivers/STM32F1xx_HAL_Driver/Src/stm32f1xx_hal_exti.c **** /* Exported functions --------------------------------------------------------*/
 120:base/chip/Drivers/STM32F1xx_HAL_Driver/Src/stm32f1xx_hal_exti.c **** 
 121:base/chip/Drivers/STM32F1xx_HAL_Driver/Src/stm32f1xx_hal_exti.c **** /** @addtogroup EXTI_Exported_Functions
 122:base/chip/Drivers/STM32F1xx_HAL_Driver/Src/stm32f1xx_hal_exti.c ****   * @{
 123:base/chip/Drivers/STM32F1xx_HAL_Driver/Src/stm32f1xx_hal_exti.c ****   */
 124:base/chip/Drivers/STM32F1xx_HAL_Driver/Src/stm32f1xx_hal_exti.c **** 
 125:base/chip/Drivers/STM32F1xx_HAL_Driver/Src/stm32f1xx_hal_exti.c **** /** @addtogroup EXTI_Exported_Functions_Group1
 126:base/chip/Drivers/STM32F1xx_HAL_Driver/Src/stm32f1xx_hal_exti.c ****   *  @brief    Configuration functions
 127:base/chip/Drivers/STM32F1xx_HAL_Driver/Src/stm32f1xx_hal_exti.c ****   *
 128:base/chip/Drivers/STM32F1xx_HAL_Driver/Src/stm32f1xx_hal_exti.c **** @verbatim
 129:base/chip/Drivers/STM32F1xx_HAL_Driver/Src/stm32f1xx_hal_exti.c ****  ===============================================================================
 130:base/chip/Drivers/STM32F1xx_HAL_Driver/Src/stm32f1xx_hal_exti.c ****               ##### Configuration functions #####
 131:base/chip/Drivers/STM32F1xx_HAL_Driver/Src/stm32f1xx_hal_exti.c ****  ===============================================================================
 132:base/chip/Drivers/STM32F1xx_HAL_Driver/Src/stm32f1xx_hal_exti.c **** 
 133:base/chip/Drivers/STM32F1xx_HAL_Driver/Src/stm32f1xx_hal_exti.c **** @endverbatim
 134:base/chip/Drivers/STM32F1xx_HAL_Driver/Src/stm32f1xx_hal_exti.c ****   * @{
 135:base/chip/Drivers/STM32F1xx_HAL_Driver/Src/stm32f1xx_hal_exti.c ****   */
 136:base/chip/Drivers/STM32F1xx_HAL_Driver/Src/stm32f1xx_hal_exti.c **** 
 137:base/chip/Drivers/STM32F1xx_HAL_Driver/Src/stm32f1xx_hal_exti.c **** /**
 138:base/chip/Drivers/STM32F1xx_HAL_Driver/Src/stm32f1xx_hal_exti.c ****   * @brief  Set configuration of a dedicated Exti line.
 139:base/chip/Drivers/STM32F1xx_HAL_Driver/Src/stm32f1xx_hal_exti.c ****   * @param  hexti Exti handle.
 140:base/chip/Drivers/STM32F1xx_HAL_Driver/Src/stm32f1xx_hal_exti.c ****   * @param  pExtiConfig Pointer on EXTI configuration to be set.
 141:base/chip/Drivers/STM32F1xx_HAL_Driver/Src/stm32f1xx_hal_exti.c ****   * @retval HAL Status.
 142:base/chip/Drivers/STM32F1xx_HAL_Driver/Src/stm32f1xx_hal_exti.c ****   */
 143:base/chip/Drivers/STM32F1xx_HAL_Driver/Src/stm32f1xx_hal_exti.c **** HAL_StatusTypeDef HAL_EXTI_SetConfigLine(EXTI_HandleTypeDef *hexti, EXTI_ConfigTypeDef *pExtiConfig
 144:base/chip/Drivers/STM32F1xx_HAL_Driver/Src/stm32f1xx_hal_exti.c **** {
  28              		.loc 1 144 1 view -0
ARM GAS  /tmp/ccXI2Tmb.s 			page 4


  29              		.cfi_startproc
  30              		@ args = 0, pretend = 0, frame = 0
  31              		@ frame_needed = 0, uses_anonymous_args = 0
  32              		@ link register save eliminated.
 145:base/chip/Drivers/STM32F1xx_HAL_Driver/Src/stm32f1xx_hal_exti.c ****   uint32_t regval;
  33              		.loc 1 145 3 view .LVU1
 146:base/chip/Drivers/STM32F1xx_HAL_Driver/Src/stm32f1xx_hal_exti.c ****   uint32_t linepos;
  34              		.loc 1 146 3 view .LVU2
 147:base/chip/Drivers/STM32F1xx_HAL_Driver/Src/stm32f1xx_hal_exti.c ****   uint32_t maskline;
  35              		.loc 1 147 3 view .LVU3
 148:base/chip/Drivers/STM32F1xx_HAL_Driver/Src/stm32f1xx_hal_exti.c **** 
 149:base/chip/Drivers/STM32F1xx_HAL_Driver/Src/stm32f1xx_hal_exti.c ****   /* Check null pointer */
 150:base/chip/Drivers/STM32F1xx_HAL_Driver/Src/stm32f1xx_hal_exti.c ****   if ((hexti == NULL) || (pExtiConfig == NULL))
  36              		.loc 1 150 3 view .LVU4
  37              		.loc 1 150 6 is_stmt 0 view .LVU5
  38 0000 0028     		cmp	r0, #0
  39 0002 60D0     		beq	.L11
  40              		.loc 1 150 23 discriminator 1 view .LVU6
  41 0004 0029     		cmp	r1, #0
  42 0006 60D0     		beq	.L12
 144:base/chip/Drivers/STM32F1xx_HAL_Driver/Src/stm32f1xx_hal_exti.c ****   uint32_t regval;
  43              		.loc 1 144 1 view .LVU7
  44 0008 70B4     		push	{r4, r5, r6}
  45              	.LCFI0:
  46              		.cfi_def_cfa_offset 12
  47              		.cfi_offset 4, -12
  48              		.cfi_offset 5, -8
  49              		.cfi_offset 6, -4
 151:base/chip/Drivers/STM32F1xx_HAL_Driver/Src/stm32f1xx_hal_exti.c ****   {
 152:base/chip/Drivers/STM32F1xx_HAL_Driver/Src/stm32f1xx_hal_exti.c ****     return HAL_ERROR;
 153:base/chip/Drivers/STM32F1xx_HAL_Driver/Src/stm32f1xx_hal_exti.c ****   }
 154:base/chip/Drivers/STM32F1xx_HAL_Driver/Src/stm32f1xx_hal_exti.c **** 
 155:base/chip/Drivers/STM32F1xx_HAL_Driver/Src/stm32f1xx_hal_exti.c ****   /* Check parameters */
 156:base/chip/Drivers/STM32F1xx_HAL_Driver/Src/stm32f1xx_hal_exti.c ****   assert_param(IS_EXTI_LINE(pExtiConfig->Line));
  50              		.loc 1 156 3 is_stmt 1 view .LVU8
 157:base/chip/Drivers/STM32F1xx_HAL_Driver/Src/stm32f1xx_hal_exti.c ****   assert_param(IS_EXTI_MODE(pExtiConfig->Mode));
  51              		.loc 1 157 3 view .LVU9
 158:base/chip/Drivers/STM32F1xx_HAL_Driver/Src/stm32f1xx_hal_exti.c **** 
 159:base/chip/Drivers/STM32F1xx_HAL_Driver/Src/stm32f1xx_hal_exti.c ****   /* Assign line number to handle */
 160:base/chip/Drivers/STM32F1xx_HAL_Driver/Src/stm32f1xx_hal_exti.c ****   hexti->Line = pExtiConfig->Line;
  52              		.loc 1 160 3 view .LVU10
  53              		.loc 1 160 28 is_stmt 0 view .LVU11
  54 000a 0B68     		ldr	r3, [r1]
  55              		.loc 1 160 15 view .LVU12
  56 000c 0360     		str	r3, [r0]
 161:base/chip/Drivers/STM32F1xx_HAL_Driver/Src/stm32f1xx_hal_exti.c **** 
 162:base/chip/Drivers/STM32F1xx_HAL_Driver/Src/stm32f1xx_hal_exti.c ****   /* Compute line mask */
 163:base/chip/Drivers/STM32F1xx_HAL_Driver/Src/stm32f1xx_hal_exti.c ****   linepos = (pExtiConfig->Line & EXTI_PIN_MASK);
  57              		.loc 1 163 3 is_stmt 1 view .LVU13
  58              		.loc 1 163 11 is_stmt 0 view .LVU14
  59 000e 03F01F02 		and	r2, r3, #31
  60              	.LVL1:
 164:base/chip/Drivers/STM32F1xx_HAL_Driver/Src/stm32f1xx_hal_exti.c ****   maskline = (1uL << linepos);
  61              		.loc 1 164 3 is_stmt 1 view .LVU15
  62              		.loc 1 164 12 is_stmt 0 view .LVU16
  63 0012 0120     		movs	r0, #1
  64              	.LVL2:
ARM GAS  /tmp/ccXI2Tmb.s 			page 5


  65              		.loc 1 164 12 view .LVU17
  66 0014 9040     		lsls	r0, r0, r2
  67              	.LVL3:
 165:base/chip/Drivers/STM32F1xx_HAL_Driver/Src/stm32f1xx_hal_exti.c **** 
 166:base/chip/Drivers/STM32F1xx_HAL_Driver/Src/stm32f1xx_hal_exti.c ****   /* Configure triggers for configurable lines */
 167:base/chip/Drivers/STM32F1xx_HAL_Driver/Src/stm32f1xx_hal_exti.c ****   if ((pExtiConfig->Line & EXTI_CONFIG) != 0x00u)
  68              		.loc 1 167 3 is_stmt 1 view .LVU18
  69              		.loc 1 167 6 is_stmt 0 view .LVU19
  70 0016 13F0007F 		tst	r3, #33554432
  71 001a 15D0     		beq	.L3
 168:base/chip/Drivers/STM32F1xx_HAL_Driver/Src/stm32f1xx_hal_exti.c ****   {
 169:base/chip/Drivers/STM32F1xx_HAL_Driver/Src/stm32f1xx_hal_exti.c ****     assert_param(IS_EXTI_TRIGGER(pExtiConfig->Trigger));
  72              		.loc 1 169 5 is_stmt 1 view .LVU20
 170:base/chip/Drivers/STM32F1xx_HAL_Driver/Src/stm32f1xx_hal_exti.c **** 
 171:base/chip/Drivers/STM32F1xx_HAL_Driver/Src/stm32f1xx_hal_exti.c ****     /* Configure rising trigger */
 172:base/chip/Drivers/STM32F1xx_HAL_Driver/Src/stm32f1xx_hal_exti.c ****     /* Mask or set line */
 173:base/chip/Drivers/STM32F1xx_HAL_Driver/Src/stm32f1xx_hal_exti.c ****     if ((pExtiConfig->Trigger & EXTI_TRIGGER_RISING) != 0x00u)
  73              		.loc 1 173 5 view .LVU21
  74              		.loc 1 173 8 is_stmt 0 view .LVU22
  75 001c 8C68     		ldr	r4, [r1, #8]
  76 001e 14F0010F 		tst	r4, #1
  77 0022 24D0     		beq	.L4
 174:base/chip/Drivers/STM32F1xx_HAL_Driver/Src/stm32f1xx_hal_exti.c ****     {
 175:base/chip/Drivers/STM32F1xx_HAL_Driver/Src/stm32f1xx_hal_exti.c ****       EXTI->RTSR |= maskline;
  78              		.loc 1 175 7 is_stmt 1 view .LVU23
  79              		.loc 1 175 18 is_stmt 0 view .LVU24
  80 0024 2A4D     		ldr	r5, .L18
  81 0026 AC68     		ldr	r4, [r5, #8]
  82 0028 0443     		orrs	r4, r4, r0
  83 002a AC60     		str	r4, [r5, #8]
  84              	.L5:
 176:base/chip/Drivers/STM32F1xx_HAL_Driver/Src/stm32f1xx_hal_exti.c ****     }
 177:base/chip/Drivers/STM32F1xx_HAL_Driver/Src/stm32f1xx_hal_exti.c ****     else
 178:base/chip/Drivers/STM32F1xx_HAL_Driver/Src/stm32f1xx_hal_exti.c ****     {
 179:base/chip/Drivers/STM32F1xx_HAL_Driver/Src/stm32f1xx_hal_exti.c ****       EXTI->RTSR &= ~maskline;
 180:base/chip/Drivers/STM32F1xx_HAL_Driver/Src/stm32f1xx_hal_exti.c ****     }
 181:base/chip/Drivers/STM32F1xx_HAL_Driver/Src/stm32f1xx_hal_exti.c **** 
 182:base/chip/Drivers/STM32F1xx_HAL_Driver/Src/stm32f1xx_hal_exti.c ****     /* Configure falling trigger */
 183:base/chip/Drivers/STM32F1xx_HAL_Driver/Src/stm32f1xx_hal_exti.c ****     /* Mask or set line */
 184:base/chip/Drivers/STM32F1xx_HAL_Driver/Src/stm32f1xx_hal_exti.c ****     if ((pExtiConfig->Trigger & EXTI_TRIGGER_FALLING) != 0x00u)
  85              		.loc 1 184 5 is_stmt 1 view .LVU25
  86              		.loc 1 184 8 is_stmt 0 view .LVU26
  87 002c 8C68     		ldr	r4, [r1, #8]
  88 002e 14F0020F 		tst	r4, #2
  89 0032 22D0     		beq	.L6
 185:base/chip/Drivers/STM32F1xx_HAL_Driver/Src/stm32f1xx_hal_exti.c ****     {
 186:base/chip/Drivers/STM32F1xx_HAL_Driver/Src/stm32f1xx_hal_exti.c ****       EXTI->FTSR |= maskline;
  90              		.loc 1 186 7 is_stmt 1 view .LVU27
  91              		.loc 1 186 18 is_stmt 0 view .LVU28
  92 0034 264D     		ldr	r5, .L18
  93 0036 EC68     		ldr	r4, [r5, #12]
  94 0038 0443     		orrs	r4, r4, r0
  95 003a EC60     		str	r4, [r5, #12]
  96              	.L7:
 187:base/chip/Drivers/STM32F1xx_HAL_Driver/Src/stm32f1xx_hal_exti.c ****     }
 188:base/chip/Drivers/STM32F1xx_HAL_Driver/Src/stm32f1xx_hal_exti.c ****     else
 189:base/chip/Drivers/STM32F1xx_HAL_Driver/Src/stm32f1xx_hal_exti.c ****     {
ARM GAS  /tmp/ccXI2Tmb.s 			page 6


 190:base/chip/Drivers/STM32F1xx_HAL_Driver/Src/stm32f1xx_hal_exti.c ****       EXTI->FTSR &= ~maskline;
 191:base/chip/Drivers/STM32F1xx_HAL_Driver/Src/stm32f1xx_hal_exti.c ****     }
 192:base/chip/Drivers/STM32F1xx_HAL_Driver/Src/stm32f1xx_hal_exti.c **** 
 193:base/chip/Drivers/STM32F1xx_HAL_Driver/Src/stm32f1xx_hal_exti.c **** 
 194:base/chip/Drivers/STM32F1xx_HAL_Driver/Src/stm32f1xx_hal_exti.c ****     /* Configure gpio port selection in case of gpio exti line */
 195:base/chip/Drivers/STM32F1xx_HAL_Driver/Src/stm32f1xx_hal_exti.c ****     if ((pExtiConfig->Line & EXTI_GPIO) == EXTI_GPIO)
  97              		.loc 1 195 5 is_stmt 1 view .LVU29
  98              		.loc 1 195 28 is_stmt 0 view .LVU30
  99 003c 0C68     		ldr	r4, [r1]
 100 003e 04F0C06C 		and	ip, r4, #100663296
 101              		.loc 1 195 8 view .LVU31
 102 0042 BCF1C06F 		cmp	ip, #100663296
 103 0046 1ED0     		beq	.L17
 104              	.LVL4:
 105              	.L3:
 196:base/chip/Drivers/STM32F1xx_HAL_Driver/Src/stm32f1xx_hal_exti.c ****     {
 197:base/chip/Drivers/STM32F1xx_HAL_Driver/Src/stm32f1xx_hal_exti.c ****       assert_param(IS_EXTI_GPIO_PORT(pExtiConfig->GPIOSel));
 198:base/chip/Drivers/STM32F1xx_HAL_Driver/Src/stm32f1xx_hal_exti.c ****       assert_param(IS_EXTI_GPIO_PIN(linepos));
 199:base/chip/Drivers/STM32F1xx_HAL_Driver/Src/stm32f1xx_hal_exti.c ****       
 200:base/chip/Drivers/STM32F1xx_HAL_Driver/Src/stm32f1xx_hal_exti.c ****       regval = AFIO->EXTICR[linepos >> 2u];
 201:base/chip/Drivers/STM32F1xx_HAL_Driver/Src/stm32f1xx_hal_exti.c ****       regval &= ~(AFIO_EXTICR1_EXTI0 << (AFIO_EXTICR1_EXTI1_Pos * (linepos & 0x03u)));
 202:base/chip/Drivers/STM32F1xx_HAL_Driver/Src/stm32f1xx_hal_exti.c ****       regval |= (pExtiConfig->GPIOSel << (AFIO_EXTICR1_EXTI1_Pos * (linepos & 0x03u)));
 203:base/chip/Drivers/STM32F1xx_HAL_Driver/Src/stm32f1xx_hal_exti.c ****       AFIO->EXTICR[linepos >> 2u] = regval;
 204:base/chip/Drivers/STM32F1xx_HAL_Driver/Src/stm32f1xx_hal_exti.c ****     }
 205:base/chip/Drivers/STM32F1xx_HAL_Driver/Src/stm32f1xx_hal_exti.c ****   }
 206:base/chip/Drivers/STM32F1xx_HAL_Driver/Src/stm32f1xx_hal_exti.c **** 
 207:base/chip/Drivers/STM32F1xx_HAL_Driver/Src/stm32f1xx_hal_exti.c ****   /* Configure interrupt mode : read current mode */
 208:base/chip/Drivers/STM32F1xx_HAL_Driver/Src/stm32f1xx_hal_exti.c ****   /* Mask or set line */
 209:base/chip/Drivers/STM32F1xx_HAL_Driver/Src/stm32f1xx_hal_exti.c ****   if ((pExtiConfig->Mode & EXTI_MODE_INTERRUPT) != 0x00u)
 106              		.loc 1 209 3 is_stmt 1 view .LVU32
 107              		.loc 1 209 19 is_stmt 0 view .LVU33
 108 0048 4B68     		ldr	r3, [r1, #4]
 109              		.loc 1 209 6 view .LVU34
 110 004a 13F0010F 		tst	r3, #1
 111 004e 2DD0     		beq	.L8
 210:base/chip/Drivers/STM32F1xx_HAL_Driver/Src/stm32f1xx_hal_exti.c ****   {
 211:base/chip/Drivers/STM32F1xx_HAL_Driver/Src/stm32f1xx_hal_exti.c ****     EXTI->IMR |= maskline;
 112              		.loc 1 211 5 is_stmt 1 view .LVU35
 113              		.loc 1 211 15 is_stmt 0 view .LVU36
 114 0050 1F4A     		ldr	r2, .L18
 115 0052 1368     		ldr	r3, [r2]
 116 0054 0343     		orrs	r3, r3, r0
 117 0056 1360     		str	r3, [r2]
 118              	.L9:
 212:base/chip/Drivers/STM32F1xx_HAL_Driver/Src/stm32f1xx_hal_exti.c ****   }
 213:base/chip/Drivers/STM32F1xx_HAL_Driver/Src/stm32f1xx_hal_exti.c ****   else
 214:base/chip/Drivers/STM32F1xx_HAL_Driver/Src/stm32f1xx_hal_exti.c ****   {
 215:base/chip/Drivers/STM32F1xx_HAL_Driver/Src/stm32f1xx_hal_exti.c ****     EXTI->IMR &= ~maskline;
 216:base/chip/Drivers/STM32F1xx_HAL_Driver/Src/stm32f1xx_hal_exti.c ****   }
 217:base/chip/Drivers/STM32F1xx_HAL_Driver/Src/stm32f1xx_hal_exti.c **** 
 218:base/chip/Drivers/STM32F1xx_HAL_Driver/Src/stm32f1xx_hal_exti.c ****   /* Configure event mode : read current mode */
 219:base/chip/Drivers/STM32F1xx_HAL_Driver/Src/stm32f1xx_hal_exti.c ****   /* Mask or set line */
 220:base/chip/Drivers/STM32F1xx_HAL_Driver/Src/stm32f1xx_hal_exti.c ****   if ((pExtiConfig->Mode & EXTI_MODE_EVENT) != 0x00u)
 119              		.loc 1 220 3 is_stmt 1 view .LVU37
 120              		.loc 1 220 19 is_stmt 0 view .LVU38
 121 0058 4B68     		ldr	r3, [r1, #4]
 122              		.loc 1 220 6 view .LVU39
ARM GAS  /tmp/ccXI2Tmb.s 			page 7


 123 005a 13F0020F 		tst	r3, #2
 124 005e 2BD0     		beq	.L10
 221:base/chip/Drivers/STM32F1xx_HAL_Driver/Src/stm32f1xx_hal_exti.c ****   {
 222:base/chip/Drivers/STM32F1xx_HAL_Driver/Src/stm32f1xx_hal_exti.c ****     EXTI->EMR |= maskline;
 125              		.loc 1 222 5 is_stmt 1 view .LVU40
 126              		.loc 1 222 15 is_stmt 0 view .LVU41
 127 0060 1B4A     		ldr	r2, .L18
 128 0062 5368     		ldr	r3, [r2, #4]
 129 0064 0343     		orrs	r3, r3, r0
 130 0066 5360     		str	r3, [r2, #4]
 223:base/chip/Drivers/STM32F1xx_HAL_Driver/Src/stm32f1xx_hal_exti.c ****   }
 224:base/chip/Drivers/STM32F1xx_HAL_Driver/Src/stm32f1xx_hal_exti.c ****   else
 225:base/chip/Drivers/STM32F1xx_HAL_Driver/Src/stm32f1xx_hal_exti.c ****   {
 226:base/chip/Drivers/STM32F1xx_HAL_Driver/Src/stm32f1xx_hal_exti.c ****     EXTI->EMR &= ~maskline;
 227:base/chip/Drivers/STM32F1xx_HAL_Driver/Src/stm32f1xx_hal_exti.c ****   }
 228:base/chip/Drivers/STM32F1xx_HAL_Driver/Src/stm32f1xx_hal_exti.c **** 
 229:base/chip/Drivers/STM32F1xx_HAL_Driver/Src/stm32f1xx_hal_exti.c ****   return HAL_OK;
 131              		.loc 1 229 10 view .LVU42
 132 0068 0020     		movs	r0, #0
 133              	.LVL5:
 134              	.L2:
 230:base/chip/Drivers/STM32F1xx_HAL_Driver/Src/stm32f1xx_hal_exti.c **** }
 135              		.loc 1 230 1 view .LVU43
 136 006a 70BC     		pop	{r4, r5, r6}
 137              	.LCFI1:
 138              		.cfi_remember_state
 139              		.cfi_restore 6
 140              		.cfi_restore 5
 141              		.cfi_restore 4
 142              		.cfi_def_cfa_offset 0
 143 006c 7047     		bx	lr
 144              	.LVL6:
 145              	.L4:
 146              	.LCFI2:
 147              		.cfi_restore_state
 179:base/chip/Drivers/STM32F1xx_HAL_Driver/Src/stm32f1xx_hal_exti.c ****     }
 148              		.loc 1 179 7 is_stmt 1 view .LVU44
 179:base/chip/Drivers/STM32F1xx_HAL_Driver/Src/stm32f1xx_hal_exti.c ****     }
 149              		.loc 1 179 18 is_stmt 0 view .LVU45
 150 006e 184D     		ldr	r5, .L18
 151 0070 AC68     		ldr	r4, [r5, #8]
 152 0072 24EA0004 		bic	r4, r4, r0
 153 0076 AC60     		str	r4, [r5, #8]
 154 0078 D8E7     		b	.L5
 155              	.L6:
 190:base/chip/Drivers/STM32F1xx_HAL_Driver/Src/stm32f1xx_hal_exti.c ****     }
 156              		.loc 1 190 7 is_stmt 1 view .LVU46
 190:base/chip/Drivers/STM32F1xx_HAL_Driver/Src/stm32f1xx_hal_exti.c ****     }
 157              		.loc 1 190 18 is_stmt 0 view .LVU47
 158 007a 154D     		ldr	r5, .L18
 159 007c EC68     		ldr	r4, [r5, #12]
 160 007e 24EA0004 		bic	r4, r4, r0
 161 0082 EC60     		str	r4, [r5, #12]
 162 0084 DAE7     		b	.L7
 163              	.L17:
 197:base/chip/Drivers/STM32F1xx_HAL_Driver/Src/stm32f1xx_hal_exti.c ****       assert_param(IS_EXTI_GPIO_PIN(linepos));
 164              		.loc 1 197 7 is_stmt 1 view .LVU48
ARM GAS  /tmp/ccXI2Tmb.s 			page 8


 198:base/chip/Drivers/STM32F1xx_HAL_Driver/Src/stm32f1xx_hal_exti.c ****       
 165              		.loc 1 198 7 view .LVU49
 200:base/chip/Drivers/STM32F1xx_HAL_Driver/Src/stm32f1xx_hal_exti.c ****       regval &= ~(AFIO_EXTICR1_EXTI0 << (AFIO_EXTICR1_EXTI1_Pos * (linepos & 0x03u)));
 166              		.loc 1 200 7 view .LVU50
 200:base/chip/Drivers/STM32F1xx_HAL_Driver/Src/stm32f1xx_hal_exti.c ****       regval &= ~(AFIO_EXTICR1_EXTI0 << (AFIO_EXTICR1_EXTI1_Pos * (linepos & 0x03u)));
 167              		.loc 1 200 37 is_stmt 0 view .LVU51
 168 0086 9208     		lsrs	r2, r2, #2
 169              	.LVL7:
 200:base/chip/Drivers/STM32F1xx_HAL_Driver/Src/stm32f1xx_hal_exti.c ****       regval &= ~(AFIO_EXTICR1_EXTI0 << (AFIO_EXTICR1_EXTI1_Pos * (linepos & 0x03u)));
 170              		.loc 1 200 14 view .LVU52
 171 0088 124E     		ldr	r6, .L18+4
 172 008a 0232     		adds	r2, r2, #2
 173 008c 56F82240 		ldr	r4, [r6, r2, lsl #2]
 174              	.LVL8:
 201:base/chip/Drivers/STM32F1xx_HAL_Driver/Src/stm32f1xx_hal_exti.c ****       regval |= (pExtiConfig->GPIOSel << (AFIO_EXTICR1_EXTI1_Pos * (linepos & 0x03u)));
 175              		.loc 1 201 7 is_stmt 1 view .LVU53
 201:base/chip/Drivers/STM32F1xx_HAL_Driver/Src/stm32f1xx_hal_exti.c ****       regval |= (pExtiConfig->GPIOSel << (AFIO_EXTICR1_EXTI1_Pos * (linepos & 0x03u)));
 176              		.loc 1 201 76 is_stmt 0 view .LVU54
 177 0090 03F00303 		and	r3, r3, #3
 178              	.LVL9:
 201:base/chip/Drivers/STM32F1xx_HAL_Driver/Src/stm32f1xx_hal_exti.c ****       regval |= (pExtiConfig->GPIOSel << (AFIO_EXTICR1_EXTI1_Pos * (linepos & 0x03u)));
 179              		.loc 1 201 65 view .LVU55
 180 0094 9B00     		lsls	r3, r3, #2
 201:base/chip/Drivers/STM32F1xx_HAL_Driver/Src/stm32f1xx_hal_exti.c ****       regval |= (pExtiConfig->GPIOSel << (AFIO_EXTICR1_EXTI1_Pos * (linepos & 0x03u)));
 181              		.loc 1 201 38 view .LVU56
 182 0096 0F25     		movs	r5, #15
 183 0098 9D40     		lsls	r5, r5, r3
 201:base/chip/Drivers/STM32F1xx_HAL_Driver/Src/stm32f1xx_hal_exti.c ****       regval |= (pExtiConfig->GPIOSel << (AFIO_EXTICR1_EXTI1_Pos * (linepos & 0x03u)));
 184              		.loc 1 201 14 view .LVU57
 185 009a 24EA0504 		bic	r4, r4, r5
 186              	.LVL10:
 202:base/chip/Drivers/STM32F1xx_HAL_Driver/Src/stm32f1xx_hal_exti.c ****       AFIO->EXTICR[linepos >> 2u] = regval;
 187              		.loc 1 202 7 is_stmt 1 view .LVU58
 202:base/chip/Drivers/STM32F1xx_HAL_Driver/Src/stm32f1xx_hal_exti.c ****       AFIO->EXTICR[linepos >> 2u] = regval;
 188              		.loc 1 202 39 is_stmt 0 view .LVU59
 189 009e CD68     		ldr	r5, [r1, #12]
 190 00a0 05FA03F3 		lsl	r3, r5, r3
 202:base/chip/Drivers/STM32F1xx_HAL_Driver/Src/stm32f1xx_hal_exti.c ****       AFIO->EXTICR[linepos >> 2u] = regval;
 191              		.loc 1 202 14 view .LVU60
 192 00a4 2343     		orrs	r3, r3, r4
 193              	.LVL11:
 203:base/chip/Drivers/STM32F1xx_HAL_Driver/Src/stm32f1xx_hal_exti.c ****     }
 194              		.loc 1 203 7 is_stmt 1 view .LVU61
 203:base/chip/Drivers/STM32F1xx_HAL_Driver/Src/stm32f1xx_hal_exti.c ****     }
 195              		.loc 1 203 35 is_stmt 0 view .LVU62
 196 00a6 46F82230 		str	r3, [r6, r2, lsl #2]
 197 00aa CDE7     		b	.L3
 198              	.LVL12:
 199              	.L8:
 215:base/chip/Drivers/STM32F1xx_HAL_Driver/Src/stm32f1xx_hal_exti.c ****   }
 200              		.loc 1 215 5 is_stmt 1 view .LVU63
 215:base/chip/Drivers/STM32F1xx_HAL_Driver/Src/stm32f1xx_hal_exti.c ****   }
 201              		.loc 1 215 15 is_stmt 0 view .LVU64
 202 00ac 084A     		ldr	r2, .L18
 203 00ae 1368     		ldr	r3, [r2]
 204 00b0 23EA0003 		bic	r3, r3, r0
 205 00b4 1360     		str	r3, [r2]
ARM GAS  /tmp/ccXI2Tmb.s 			page 9


 206 00b6 CFE7     		b	.L9
 207              	.L10:
 226:base/chip/Drivers/STM32F1xx_HAL_Driver/Src/stm32f1xx_hal_exti.c ****   }
 208              		.loc 1 226 5 is_stmt 1 view .LVU65
 226:base/chip/Drivers/STM32F1xx_HAL_Driver/Src/stm32f1xx_hal_exti.c ****   }
 209              		.loc 1 226 15 is_stmt 0 view .LVU66
 210 00b8 054A     		ldr	r2, .L18
 211 00ba 5368     		ldr	r3, [r2, #4]
 212 00bc 23EA0003 		bic	r3, r3, r0
 213 00c0 5360     		str	r3, [r2, #4]
 229:base/chip/Drivers/STM32F1xx_HAL_Driver/Src/stm32f1xx_hal_exti.c **** }
 214              		.loc 1 229 10 view .LVU67
 215 00c2 0020     		movs	r0, #0
 216              	.LVL13:
 229:base/chip/Drivers/STM32F1xx_HAL_Driver/Src/stm32f1xx_hal_exti.c **** }
 217              		.loc 1 229 10 view .LVU68
 218 00c4 D1E7     		b	.L2
 219              	.LVL14:
 220              	.L11:
 221              	.LCFI3:
 222              		.cfi_def_cfa_offset 0
 223              		.cfi_restore 4
 224              		.cfi_restore 5
 225              		.cfi_restore 6
 152:base/chip/Drivers/STM32F1xx_HAL_Driver/Src/stm32f1xx_hal_exti.c ****   }
 226              		.loc 1 152 12 view .LVU69
 227 00c6 0120     		movs	r0, #1
 228              	.LVL15:
 152:base/chip/Drivers/STM32F1xx_HAL_Driver/Src/stm32f1xx_hal_exti.c ****   }
 229              		.loc 1 152 12 view .LVU70
 230 00c8 7047     		bx	lr
 231              	.LVL16:
 232              	.L12:
 152:base/chip/Drivers/STM32F1xx_HAL_Driver/Src/stm32f1xx_hal_exti.c ****   }
 233              		.loc 1 152 12 view .LVU71
 234 00ca 0120     		movs	r0, #1
 235              	.LVL17:
 236              		.loc 1 230 1 view .LVU72
 237 00cc 7047     		bx	lr
 238              	.L19:
 239 00ce 00BF     		.align	2
 240              	.L18:
 241 00d0 00040140 		.word	1073808384
 242 00d4 00000140 		.word	1073807360
 243              		.cfi_endproc
 244              	.LFE65:
 246              		.section	.text.HAL_EXTI_GetConfigLine,"ax",%progbits
 247              		.align	1
 248              		.global	HAL_EXTI_GetConfigLine
 249              		.syntax unified
 250              		.thumb
 251              		.thumb_func
 252              		.fpu softvfp
 254              	HAL_EXTI_GetConfigLine:
 255              	.LVL18:
 256              	.LFB66:
 231:base/chip/Drivers/STM32F1xx_HAL_Driver/Src/stm32f1xx_hal_exti.c **** 
ARM GAS  /tmp/ccXI2Tmb.s 			page 10


 232:base/chip/Drivers/STM32F1xx_HAL_Driver/Src/stm32f1xx_hal_exti.c **** /**
 233:base/chip/Drivers/STM32F1xx_HAL_Driver/Src/stm32f1xx_hal_exti.c ****   * @brief  Get configuration of a dedicated Exti line.
 234:base/chip/Drivers/STM32F1xx_HAL_Driver/Src/stm32f1xx_hal_exti.c ****   * @param  hexti Exti handle.
 235:base/chip/Drivers/STM32F1xx_HAL_Driver/Src/stm32f1xx_hal_exti.c ****   * @param  pExtiConfig Pointer on structure to store Exti configuration.
 236:base/chip/Drivers/STM32F1xx_HAL_Driver/Src/stm32f1xx_hal_exti.c ****   * @retval HAL Status.
 237:base/chip/Drivers/STM32F1xx_HAL_Driver/Src/stm32f1xx_hal_exti.c ****   */
 238:base/chip/Drivers/STM32F1xx_HAL_Driver/Src/stm32f1xx_hal_exti.c **** HAL_StatusTypeDef HAL_EXTI_GetConfigLine(EXTI_HandleTypeDef *hexti, EXTI_ConfigTypeDef *pExtiConfig
 239:base/chip/Drivers/STM32F1xx_HAL_Driver/Src/stm32f1xx_hal_exti.c **** {
 257              		.loc 1 239 1 is_stmt 1 view -0
 258              		.cfi_startproc
 259              		@ args = 0, pretend = 0, frame = 0
 260              		@ frame_needed = 0, uses_anonymous_args = 0
 261              		@ link register save eliminated.
 240:base/chip/Drivers/STM32F1xx_HAL_Driver/Src/stm32f1xx_hal_exti.c ****   uint32_t regval;
 262              		.loc 1 240 3 view .LVU74
 241:base/chip/Drivers/STM32F1xx_HAL_Driver/Src/stm32f1xx_hal_exti.c ****   uint32_t linepos;
 263              		.loc 1 241 3 view .LVU75
 242:base/chip/Drivers/STM32F1xx_HAL_Driver/Src/stm32f1xx_hal_exti.c ****   uint32_t maskline;
 264              		.loc 1 242 3 view .LVU76
 243:base/chip/Drivers/STM32F1xx_HAL_Driver/Src/stm32f1xx_hal_exti.c **** 
 244:base/chip/Drivers/STM32F1xx_HAL_Driver/Src/stm32f1xx_hal_exti.c ****   /* Check null pointer */
 245:base/chip/Drivers/STM32F1xx_HAL_Driver/Src/stm32f1xx_hal_exti.c ****   if ((hexti == NULL) || (pExtiConfig == NULL))
 265              		.loc 1 245 3 view .LVU77
 266              		.loc 1 245 6 is_stmt 0 view .LVU78
 267 0000 0028     		cmp	r0, #0
 268 0002 4AD0     		beq	.L30
 269              		.loc 1 245 23 discriminator 1 view .LVU79
 270 0004 0029     		cmp	r1, #0
 271 0006 4AD0     		beq	.L31
 246:base/chip/Drivers/STM32F1xx_HAL_Driver/Src/stm32f1xx_hal_exti.c ****   {
 247:base/chip/Drivers/STM32F1xx_HAL_Driver/Src/stm32f1xx_hal_exti.c ****     return HAL_ERROR;
 248:base/chip/Drivers/STM32F1xx_HAL_Driver/Src/stm32f1xx_hal_exti.c ****   }
 249:base/chip/Drivers/STM32F1xx_HAL_Driver/Src/stm32f1xx_hal_exti.c **** 
 250:base/chip/Drivers/STM32F1xx_HAL_Driver/Src/stm32f1xx_hal_exti.c ****   /* Check the parameter */
 251:base/chip/Drivers/STM32F1xx_HAL_Driver/Src/stm32f1xx_hal_exti.c ****   assert_param(IS_EXTI_LINE(hexti->Line));
 272              		.loc 1 251 3 is_stmt 1 view .LVU80
 252:base/chip/Drivers/STM32F1xx_HAL_Driver/Src/stm32f1xx_hal_exti.c **** 
 253:base/chip/Drivers/STM32F1xx_HAL_Driver/Src/stm32f1xx_hal_exti.c ****   /* Store handle line number to configuration structure */
 254:base/chip/Drivers/STM32F1xx_HAL_Driver/Src/stm32f1xx_hal_exti.c ****   pExtiConfig->Line = hexti->Line;
 273              		.loc 1 254 3 view .LVU81
 274              		.loc 1 254 28 is_stmt 0 view .LVU82
 275 0008 0068     		ldr	r0, [r0]
 276              	.LVL19:
 277              		.loc 1 254 21 view .LVU83
 278 000a 0860     		str	r0, [r1]
 255:base/chip/Drivers/STM32F1xx_HAL_Driver/Src/stm32f1xx_hal_exti.c **** 
 256:base/chip/Drivers/STM32F1xx_HAL_Driver/Src/stm32f1xx_hal_exti.c ****   /* Compute line mask */
 257:base/chip/Drivers/STM32F1xx_HAL_Driver/Src/stm32f1xx_hal_exti.c ****   linepos = (pExtiConfig->Line & EXTI_PIN_MASK);
 279              		.loc 1 257 3 is_stmt 1 view .LVU84
 280              		.loc 1 257 11 is_stmt 0 view .LVU85
 281 000c 00F01F0C 		and	ip, r0, #31
 282              	.LVL20:
 258:base/chip/Drivers/STM32F1xx_HAL_Driver/Src/stm32f1xx_hal_exti.c ****   maskline = (1uL << linepos);
 283              		.loc 1 258 3 is_stmt 1 view .LVU86
 284              		.loc 1 258 12 is_stmt 0 view .LVU87
 285 0010 0123     		movs	r3, #1
 286 0012 03FA0CF3 		lsl	r3, r3, ip
ARM GAS  /tmp/ccXI2Tmb.s 			page 11


 287              	.LVL21:
 259:base/chip/Drivers/STM32F1xx_HAL_Driver/Src/stm32f1xx_hal_exti.c **** 
 260:base/chip/Drivers/STM32F1xx_HAL_Driver/Src/stm32f1xx_hal_exti.c ****   /* 1] Get core mode : interrupt */
 261:base/chip/Drivers/STM32F1xx_HAL_Driver/Src/stm32f1xx_hal_exti.c **** 
 262:base/chip/Drivers/STM32F1xx_HAL_Driver/Src/stm32f1xx_hal_exti.c ****   /* Check if selected line is enable */
 263:base/chip/Drivers/STM32F1xx_HAL_Driver/Src/stm32f1xx_hal_exti.c ****   if ((EXTI->IMR & maskline) != 0x00u)
 288              		.loc 1 263 3 is_stmt 1 view .LVU88
 289              		.loc 1 263 12 is_stmt 0 view .LVU89
 290 0016 234A     		ldr	r2, .L33
 291 0018 1268     		ldr	r2, [r2]
 292              		.loc 1 263 6 view .LVU90
 293 001a 1A42     		tst	r2, r3
 294 001c 22D0     		beq	.L22
 264:base/chip/Drivers/STM32F1xx_HAL_Driver/Src/stm32f1xx_hal_exti.c ****   {
 265:base/chip/Drivers/STM32F1xx_HAL_Driver/Src/stm32f1xx_hal_exti.c ****     pExtiConfig->Mode = EXTI_MODE_INTERRUPT;
 295              		.loc 1 265 5 is_stmt 1 view .LVU91
 296              		.loc 1 265 23 is_stmt 0 view .LVU92
 297 001e 0122     		movs	r2, #1
 298 0020 4A60     		str	r2, [r1, #4]
 299              	.L23:
 266:base/chip/Drivers/STM32F1xx_HAL_Driver/Src/stm32f1xx_hal_exti.c ****   }
 267:base/chip/Drivers/STM32F1xx_HAL_Driver/Src/stm32f1xx_hal_exti.c ****   else
 268:base/chip/Drivers/STM32F1xx_HAL_Driver/Src/stm32f1xx_hal_exti.c ****   {
 269:base/chip/Drivers/STM32F1xx_HAL_Driver/Src/stm32f1xx_hal_exti.c ****     pExtiConfig->Mode = EXTI_MODE_NONE;
 270:base/chip/Drivers/STM32F1xx_HAL_Driver/Src/stm32f1xx_hal_exti.c ****   }
 271:base/chip/Drivers/STM32F1xx_HAL_Driver/Src/stm32f1xx_hal_exti.c **** 
 272:base/chip/Drivers/STM32F1xx_HAL_Driver/Src/stm32f1xx_hal_exti.c ****   /* Get event mode */
 273:base/chip/Drivers/STM32F1xx_HAL_Driver/Src/stm32f1xx_hal_exti.c ****   /* Check if selected line is enable */
 274:base/chip/Drivers/STM32F1xx_HAL_Driver/Src/stm32f1xx_hal_exti.c ****   if ((EXTI->EMR & maskline) != 0x00u)
 300              		.loc 1 274 3 is_stmt 1 view .LVU93
 301              		.loc 1 274 12 is_stmt 0 view .LVU94
 302 0022 204A     		ldr	r2, .L33
 303 0024 5268     		ldr	r2, [r2, #4]
 304              		.loc 1 274 6 view .LVU95
 305 0026 1A42     		tst	r2, r3
 306 0028 03D0     		beq	.L24
 275:base/chip/Drivers/STM32F1xx_HAL_Driver/Src/stm32f1xx_hal_exti.c ****   {
 276:base/chip/Drivers/STM32F1xx_HAL_Driver/Src/stm32f1xx_hal_exti.c ****     pExtiConfig->Mode |= EXTI_MODE_EVENT;
 307              		.loc 1 276 5 is_stmt 1 view .LVU96
 308              		.loc 1 276 23 is_stmt 0 view .LVU97
 309 002a 4A68     		ldr	r2, [r1, #4]
 310 002c 42F00202 		orr	r2, r2, #2
 311 0030 4A60     		str	r2, [r1, #4]
 312              	.L24:
 277:base/chip/Drivers/STM32F1xx_HAL_Driver/Src/stm32f1xx_hal_exti.c ****   }
 278:base/chip/Drivers/STM32F1xx_HAL_Driver/Src/stm32f1xx_hal_exti.c **** 
 279:base/chip/Drivers/STM32F1xx_HAL_Driver/Src/stm32f1xx_hal_exti.c ****   /* 2] Get trigger for configurable lines : rising */
 280:base/chip/Drivers/STM32F1xx_HAL_Driver/Src/stm32f1xx_hal_exti.c ****   if ((pExtiConfig->Line & EXTI_CONFIG) != 0x00u)
 313              		.loc 1 280 3 is_stmt 1 view .LVU98
 314              		.loc 1 280 6 is_stmt 0 view .LVU99
 315 0032 10F0007F 		tst	r0, #33554432
 316 0036 2CD0     		beq	.L25
 281:base/chip/Drivers/STM32F1xx_HAL_Driver/Src/stm32f1xx_hal_exti.c ****   {
 282:base/chip/Drivers/STM32F1xx_HAL_Driver/Src/stm32f1xx_hal_exti.c ****     /* Check if configuration of selected line is enable */
 283:base/chip/Drivers/STM32F1xx_HAL_Driver/Src/stm32f1xx_hal_exti.c ****     if ((EXTI->RTSR & maskline) != 0x00u)
 317              		.loc 1 283 5 is_stmt 1 view .LVU100
 318              		.loc 1 283 14 is_stmt 0 view .LVU101
ARM GAS  /tmp/ccXI2Tmb.s 			page 12


 319 0038 1A4A     		ldr	r2, .L33
 320 003a 9268     		ldr	r2, [r2, #8]
 321              		.loc 1 283 8 view .LVU102
 322 003c 1A42     		tst	r2, r3
 323 003e 14D0     		beq	.L26
 284:base/chip/Drivers/STM32F1xx_HAL_Driver/Src/stm32f1xx_hal_exti.c ****     {
 285:base/chip/Drivers/STM32F1xx_HAL_Driver/Src/stm32f1xx_hal_exti.c ****       pExtiConfig->Trigger = EXTI_TRIGGER_RISING;
 324              		.loc 1 285 7 is_stmt 1 view .LVU103
 325              		.loc 1 285 28 is_stmt 0 view .LVU104
 326 0040 0122     		movs	r2, #1
 327 0042 8A60     		str	r2, [r1, #8]
 328              	.L27:
 286:base/chip/Drivers/STM32F1xx_HAL_Driver/Src/stm32f1xx_hal_exti.c ****     }
 287:base/chip/Drivers/STM32F1xx_HAL_Driver/Src/stm32f1xx_hal_exti.c ****     else
 288:base/chip/Drivers/STM32F1xx_HAL_Driver/Src/stm32f1xx_hal_exti.c ****     {
 289:base/chip/Drivers/STM32F1xx_HAL_Driver/Src/stm32f1xx_hal_exti.c ****       pExtiConfig->Trigger = EXTI_TRIGGER_NONE;
 290:base/chip/Drivers/STM32F1xx_HAL_Driver/Src/stm32f1xx_hal_exti.c ****     }
 291:base/chip/Drivers/STM32F1xx_HAL_Driver/Src/stm32f1xx_hal_exti.c **** 
 292:base/chip/Drivers/STM32F1xx_HAL_Driver/Src/stm32f1xx_hal_exti.c ****     /* Get falling configuration */
 293:base/chip/Drivers/STM32F1xx_HAL_Driver/Src/stm32f1xx_hal_exti.c ****     /* Check if configuration of selected line is enable */
 294:base/chip/Drivers/STM32F1xx_HAL_Driver/Src/stm32f1xx_hal_exti.c ****     if ((EXTI->FTSR & maskline) != 0x00u)
 329              		.loc 1 294 5 is_stmt 1 view .LVU105
 330              		.loc 1 294 14 is_stmt 0 view .LVU106
 331 0044 174A     		ldr	r2, .L33
 332 0046 D268     		ldr	r2, [r2, #12]
 333              		.loc 1 294 8 view .LVU107
 334 0048 1A42     		tst	r2, r3
 335 004a 03D0     		beq	.L28
 295:base/chip/Drivers/STM32F1xx_HAL_Driver/Src/stm32f1xx_hal_exti.c ****     {
 296:base/chip/Drivers/STM32F1xx_HAL_Driver/Src/stm32f1xx_hal_exti.c ****       pExtiConfig->Trigger |= EXTI_TRIGGER_FALLING;
 336              		.loc 1 296 7 is_stmt 1 view .LVU108
 337              		.loc 1 296 28 is_stmt 0 view .LVU109
 338 004c 8B68     		ldr	r3, [r1, #8]
 339              	.LVL22:
 340              		.loc 1 296 28 view .LVU110
 341 004e 43F00203 		orr	r3, r3, #2
 342 0052 8B60     		str	r3, [r1, #8]
 343              	.L28:
 297:base/chip/Drivers/STM32F1xx_HAL_Driver/Src/stm32f1xx_hal_exti.c ****     }
 298:base/chip/Drivers/STM32F1xx_HAL_Driver/Src/stm32f1xx_hal_exti.c **** 
 299:base/chip/Drivers/STM32F1xx_HAL_Driver/Src/stm32f1xx_hal_exti.c ****     /* Get Gpio port selection for gpio lines */
 300:base/chip/Drivers/STM32F1xx_HAL_Driver/Src/stm32f1xx_hal_exti.c ****     if ((pExtiConfig->Line & EXTI_GPIO) == EXTI_GPIO)
 344              		.loc 1 300 5 is_stmt 1 view .LVU111
 345              		.loc 1 300 28 is_stmt 0 view .LVU112
 346 0054 00F0C063 		and	r3, r0, #100663296
 347              		.loc 1 300 8 view .LVU113
 348 0058 B3F1C06F 		cmp	r3, #100663296
 349 005c 08D0     		beq	.L32
 301:base/chip/Drivers/STM32F1xx_HAL_Driver/Src/stm32f1xx_hal_exti.c ****     {
 302:base/chip/Drivers/STM32F1xx_HAL_Driver/Src/stm32f1xx_hal_exti.c ****       assert_param(IS_EXTI_GPIO_PIN(linepos));
 303:base/chip/Drivers/STM32F1xx_HAL_Driver/Src/stm32f1xx_hal_exti.c **** 
 304:base/chip/Drivers/STM32F1xx_HAL_Driver/Src/stm32f1xx_hal_exti.c ****       regval = AFIO->EXTICR[linepos >> 2u];
 305:base/chip/Drivers/STM32F1xx_HAL_Driver/Src/stm32f1xx_hal_exti.c ****       pExtiConfig->GPIOSel = ((regval << (AFIO_EXTICR1_EXTI1_Pos * (3uL - (linepos & 0x03u)))) >> 2
 306:base/chip/Drivers/STM32F1xx_HAL_Driver/Src/stm32f1xx_hal_exti.c ****     }
 307:base/chip/Drivers/STM32F1xx_HAL_Driver/Src/stm32f1xx_hal_exti.c ****     else
 308:base/chip/Drivers/STM32F1xx_HAL_Driver/Src/stm32f1xx_hal_exti.c ****     {
 309:base/chip/Drivers/STM32F1xx_HAL_Driver/Src/stm32f1xx_hal_exti.c ****       pExtiConfig->GPIOSel = 0x00u;
ARM GAS  /tmp/ccXI2Tmb.s 			page 13


 350              		.loc 1 309 7 is_stmt 1 view .LVU114
 351              		.loc 1 309 28 is_stmt 0 view .LVU115
 352 005e 0020     		movs	r0, #0
 353 0060 C860     		str	r0, [r1, #12]
 354 0062 7047     		bx	lr
 355              	.LVL23:
 356              	.L22:
 269:base/chip/Drivers/STM32F1xx_HAL_Driver/Src/stm32f1xx_hal_exti.c ****   }
 357              		.loc 1 269 5 is_stmt 1 view .LVU116
 269:base/chip/Drivers/STM32F1xx_HAL_Driver/Src/stm32f1xx_hal_exti.c ****   }
 358              		.loc 1 269 23 is_stmt 0 view .LVU117
 359 0064 0022     		movs	r2, #0
 360 0066 4A60     		str	r2, [r1, #4]
 361 0068 DBE7     		b	.L23
 362              	.L26:
 289:base/chip/Drivers/STM32F1xx_HAL_Driver/Src/stm32f1xx_hal_exti.c ****     }
 363              		.loc 1 289 7 is_stmt 1 view .LVU118
 289:base/chip/Drivers/STM32F1xx_HAL_Driver/Src/stm32f1xx_hal_exti.c ****     }
 364              		.loc 1 289 28 is_stmt 0 view .LVU119
 365 006a 0022     		movs	r2, #0
 366 006c 8A60     		str	r2, [r1, #8]
 367 006e E9E7     		b	.L27
 368              	.LVL24:
 369              	.L32:
 302:base/chip/Drivers/STM32F1xx_HAL_Driver/Src/stm32f1xx_hal_exti.c **** 
 370              		.loc 1 302 7 is_stmt 1 view .LVU120
 304:base/chip/Drivers/STM32F1xx_HAL_Driver/Src/stm32f1xx_hal_exti.c ****       pExtiConfig->GPIOSel = ((regval << (AFIO_EXTICR1_EXTI1_Pos * (3uL - (linepos & 0x03u)))) >> 2
 371              		.loc 1 304 7 view .LVU121
 304:base/chip/Drivers/STM32F1xx_HAL_Driver/Src/stm32f1xx_hal_exti.c ****       pExtiConfig->GPIOSel = ((regval << (AFIO_EXTICR1_EXTI1_Pos * (3uL - (linepos & 0x03u)))) >> 2
 372              		.loc 1 304 37 is_stmt 0 view .LVU122
 373 0070 4FEA9C03 		lsr	r3, ip, #2
 304:base/chip/Drivers/STM32F1xx_HAL_Driver/Src/stm32f1xx_hal_exti.c ****       pExtiConfig->GPIOSel = ((regval << (AFIO_EXTICR1_EXTI1_Pos * (3uL - (linepos & 0x03u)))) >> 2
 374              		.loc 1 304 14 view .LVU123
 375 0074 0233     		adds	r3, r3, #2
 376 0076 0C4A     		ldr	r2, .L33+4
 377 0078 52F82320 		ldr	r2, [r2, r3, lsl #2]
 378              	.LVL25:
 305:base/chip/Drivers/STM32F1xx_HAL_Driver/Src/stm32f1xx_hal_exti.c ****     }
 379              		.loc 1 305 7 is_stmt 1 view .LVU124
 305:base/chip/Drivers/STM32F1xx_HAL_Driver/Src/stm32f1xx_hal_exti.c ****     }
 380              		.loc 1 305 73 is_stmt 0 view .LVU125
 381 007c 6FEA0C03 		mvn	r3, ip
 382 0080 03F00303 		and	r3, r3, #3
 305:base/chip/Drivers/STM32F1xx_HAL_Driver/Src/stm32f1xx_hal_exti.c ****     }
 383              		.loc 1 305 66 view .LVU126
 384 0084 9B00     		lsls	r3, r3, #2
 305:base/chip/Drivers/STM32F1xx_HAL_Driver/Src/stm32f1xx_hal_exti.c ****     }
 385              		.loc 1 305 39 view .LVU127
 386 0086 02FA03F3 		lsl	r3, r2, r3
 305:base/chip/Drivers/STM32F1xx_HAL_Driver/Src/stm32f1xx_hal_exti.c ****     }
 387              		.loc 1 305 96 view .LVU128
 388 008a 1B0E     		lsrs	r3, r3, #24
 305:base/chip/Drivers/STM32F1xx_HAL_Driver/Src/stm32f1xx_hal_exti.c ****     }
 389              		.loc 1 305 28 view .LVU129
 390 008c CB60     		str	r3, [r1, #12]
 310:base/chip/Drivers/STM32F1xx_HAL_Driver/Src/stm32f1xx_hal_exti.c ****     }
 311:base/chip/Drivers/STM32F1xx_HAL_Driver/Src/stm32f1xx_hal_exti.c ****   }
ARM GAS  /tmp/ccXI2Tmb.s 			page 14


 312:base/chip/Drivers/STM32F1xx_HAL_Driver/Src/stm32f1xx_hal_exti.c ****   else
 313:base/chip/Drivers/STM32F1xx_HAL_Driver/Src/stm32f1xx_hal_exti.c ****   {
 314:base/chip/Drivers/STM32F1xx_HAL_Driver/Src/stm32f1xx_hal_exti.c ****     /* No Trigger selected */
 315:base/chip/Drivers/STM32F1xx_HAL_Driver/Src/stm32f1xx_hal_exti.c ****     pExtiConfig->Trigger = EXTI_TRIGGER_NONE;
 316:base/chip/Drivers/STM32F1xx_HAL_Driver/Src/stm32f1xx_hal_exti.c ****     pExtiConfig->GPIOSel = 0x00u;
 317:base/chip/Drivers/STM32F1xx_HAL_Driver/Src/stm32f1xx_hal_exti.c ****   }
 318:base/chip/Drivers/STM32F1xx_HAL_Driver/Src/stm32f1xx_hal_exti.c **** 
 319:base/chip/Drivers/STM32F1xx_HAL_Driver/Src/stm32f1xx_hal_exti.c ****   return HAL_OK;
 391              		.loc 1 319 10 view .LVU130
 392 008e 0020     		movs	r0, #0
 393 0090 7047     		bx	lr
 394              	.LVL26:
 395              	.L25:
 315:base/chip/Drivers/STM32F1xx_HAL_Driver/Src/stm32f1xx_hal_exti.c ****     pExtiConfig->GPIOSel = 0x00u;
 396              		.loc 1 315 5 is_stmt 1 view .LVU131
 315:base/chip/Drivers/STM32F1xx_HAL_Driver/Src/stm32f1xx_hal_exti.c ****     pExtiConfig->GPIOSel = 0x00u;
 397              		.loc 1 315 26 is_stmt 0 view .LVU132
 398 0092 0020     		movs	r0, #0
 399 0094 8860     		str	r0, [r1, #8]
 316:base/chip/Drivers/STM32F1xx_HAL_Driver/Src/stm32f1xx_hal_exti.c ****   }
 400              		.loc 1 316 5 is_stmt 1 view .LVU133
 316:base/chip/Drivers/STM32F1xx_HAL_Driver/Src/stm32f1xx_hal_exti.c ****   }
 401              		.loc 1 316 26 is_stmt 0 view .LVU134
 402 0096 C860     		str	r0, [r1, #12]
 403 0098 7047     		bx	lr
 404              	.LVL27:
 405              	.L30:
 247:base/chip/Drivers/STM32F1xx_HAL_Driver/Src/stm32f1xx_hal_exti.c ****   }
 406              		.loc 1 247 12 view .LVU135
 407 009a 0120     		movs	r0, #1
 408              	.LVL28:
 247:base/chip/Drivers/STM32F1xx_HAL_Driver/Src/stm32f1xx_hal_exti.c ****   }
 409              		.loc 1 247 12 view .LVU136
 410 009c 7047     		bx	lr
 411              	.LVL29:
 412              	.L31:
 247:base/chip/Drivers/STM32F1xx_HAL_Driver/Src/stm32f1xx_hal_exti.c ****   }
 413              		.loc 1 247 12 view .LVU137
 414 009e 0120     		movs	r0, #1
 415              	.LVL30:
 320:base/chip/Drivers/STM32F1xx_HAL_Driver/Src/stm32f1xx_hal_exti.c **** }
 416              		.loc 1 320 1 view .LVU138
 417 00a0 7047     		bx	lr
 418              	.L34:
 419 00a2 00BF     		.align	2
 420              	.L33:
 421 00a4 00040140 		.word	1073808384
 422 00a8 00000140 		.word	1073807360
 423              		.cfi_endproc
 424              	.LFE66:
 426              		.section	.text.HAL_EXTI_ClearConfigLine,"ax",%progbits
 427              		.align	1
 428              		.global	HAL_EXTI_ClearConfigLine
 429              		.syntax unified
 430              		.thumb
 431              		.thumb_func
 432              		.fpu softvfp
ARM GAS  /tmp/ccXI2Tmb.s 			page 15


 434              	HAL_EXTI_ClearConfigLine:
 435              	.LVL31:
 436              	.LFB67:
 321:base/chip/Drivers/STM32F1xx_HAL_Driver/Src/stm32f1xx_hal_exti.c **** 
 322:base/chip/Drivers/STM32F1xx_HAL_Driver/Src/stm32f1xx_hal_exti.c **** /**
 323:base/chip/Drivers/STM32F1xx_HAL_Driver/Src/stm32f1xx_hal_exti.c ****   * @brief  Clear whole configuration of a dedicated Exti line.
 324:base/chip/Drivers/STM32F1xx_HAL_Driver/Src/stm32f1xx_hal_exti.c ****   * @param  hexti Exti handle.
 325:base/chip/Drivers/STM32F1xx_HAL_Driver/Src/stm32f1xx_hal_exti.c ****   * @retval HAL Status.
 326:base/chip/Drivers/STM32F1xx_HAL_Driver/Src/stm32f1xx_hal_exti.c ****   */
 327:base/chip/Drivers/STM32F1xx_HAL_Driver/Src/stm32f1xx_hal_exti.c **** HAL_StatusTypeDef HAL_EXTI_ClearConfigLine(EXTI_HandleTypeDef *hexti)
 328:base/chip/Drivers/STM32F1xx_HAL_Driver/Src/stm32f1xx_hal_exti.c **** {
 437              		.loc 1 328 1 is_stmt 1 view -0
 438              		.cfi_startproc
 439              		@ args = 0, pretend = 0, frame = 0
 440              		@ frame_needed = 0, uses_anonymous_args = 0
 329:base/chip/Drivers/STM32F1xx_HAL_Driver/Src/stm32f1xx_hal_exti.c ****   uint32_t regval;
 441              		.loc 1 329 3 view .LVU140
 330:base/chip/Drivers/STM32F1xx_HAL_Driver/Src/stm32f1xx_hal_exti.c ****   uint32_t linepos;
 442              		.loc 1 330 3 view .LVU141
 331:base/chip/Drivers/STM32F1xx_HAL_Driver/Src/stm32f1xx_hal_exti.c ****   uint32_t maskline;
 443              		.loc 1 331 3 view .LVU142
 332:base/chip/Drivers/STM32F1xx_HAL_Driver/Src/stm32f1xx_hal_exti.c **** 
 333:base/chip/Drivers/STM32F1xx_HAL_Driver/Src/stm32f1xx_hal_exti.c ****   /* Check null pointer */
 334:base/chip/Drivers/STM32F1xx_HAL_Driver/Src/stm32f1xx_hal_exti.c ****   if (hexti == NULL)
 444              		.loc 1 334 3 view .LVU143
 445              		.loc 1 334 6 is_stmt 0 view .LVU144
 446 0000 0028     		cmp	r0, #0
 447 0002 37D0     		beq	.L37
 328:base/chip/Drivers/STM32F1xx_HAL_Driver/Src/stm32f1xx_hal_exti.c ****   uint32_t regval;
 448              		.loc 1 328 1 view .LVU145
 449 0004 10B5     		push	{r4, lr}
 450              	.LCFI4:
 451              		.cfi_def_cfa_offset 8
 452              		.cfi_offset 4, -8
 453              		.cfi_offset 14, -4
 454 0006 8446     		mov	ip, r0
 335:base/chip/Drivers/STM32F1xx_HAL_Driver/Src/stm32f1xx_hal_exti.c ****   {
 336:base/chip/Drivers/STM32F1xx_HAL_Driver/Src/stm32f1xx_hal_exti.c ****     return HAL_ERROR;
 337:base/chip/Drivers/STM32F1xx_HAL_Driver/Src/stm32f1xx_hal_exti.c ****   }
 338:base/chip/Drivers/STM32F1xx_HAL_Driver/Src/stm32f1xx_hal_exti.c **** 
 339:base/chip/Drivers/STM32F1xx_HAL_Driver/Src/stm32f1xx_hal_exti.c ****   /* Check the parameter */
 340:base/chip/Drivers/STM32F1xx_HAL_Driver/Src/stm32f1xx_hal_exti.c ****   assert_param(IS_EXTI_LINE(hexti->Line));
 455              		.loc 1 340 3 is_stmt 1 view .LVU146
 341:base/chip/Drivers/STM32F1xx_HAL_Driver/Src/stm32f1xx_hal_exti.c **** 
 342:base/chip/Drivers/STM32F1xx_HAL_Driver/Src/stm32f1xx_hal_exti.c ****   /* compute line mask */
 343:base/chip/Drivers/STM32F1xx_HAL_Driver/Src/stm32f1xx_hal_exti.c ****   linepos = (hexti->Line & EXTI_PIN_MASK);
 456              		.loc 1 343 3 view .LVU147
 457              		.loc 1 343 19 is_stmt 0 view .LVU148
 458 0008 0468     		ldr	r4, [r0]
 459              		.loc 1 343 11 view .LVU149
 460 000a 04F01F00 		and	r0, r4, #31
 461              	.LVL32:
 344:base/chip/Drivers/STM32F1xx_HAL_Driver/Src/stm32f1xx_hal_exti.c ****   maskline = (1uL << linepos);
 462              		.loc 1 344 3 is_stmt 1 view .LVU150
 463              		.loc 1 344 12 is_stmt 0 view .LVU151
 464 000e 0123     		movs	r3, #1
 465 0010 8340     		lsls	r3, r3, r0
ARM GAS  /tmp/ccXI2Tmb.s 			page 16


 466              	.LVL33:
 345:base/chip/Drivers/STM32F1xx_HAL_Driver/Src/stm32f1xx_hal_exti.c **** 
 346:base/chip/Drivers/STM32F1xx_HAL_Driver/Src/stm32f1xx_hal_exti.c ****   /* 1] Clear interrupt mode */
 347:base/chip/Drivers/STM32F1xx_HAL_Driver/Src/stm32f1xx_hal_exti.c ****   EXTI->IMR = (EXTI->IMR & ~maskline);
 467              		.loc 1 347 3 is_stmt 1 view .LVU152
 468              		.loc 1 347 20 is_stmt 0 view .LVU153
 469 0012 1A4A     		ldr	r2, .L45
 470 0014 1168     		ldr	r1, [r2]
 471              		.loc 1 347 28 view .LVU154
 472 0016 6FEA030E 		mvn	lr, r3
 473              		.loc 1 347 26 view .LVU155
 474 001a 21EA0301 		bic	r1, r1, r3
 475              		.loc 1 347 13 view .LVU156
 476 001e 1160     		str	r1, [r2]
 348:base/chip/Drivers/STM32F1xx_HAL_Driver/Src/stm32f1xx_hal_exti.c **** 
 349:base/chip/Drivers/STM32F1xx_HAL_Driver/Src/stm32f1xx_hal_exti.c ****   /* 2] Clear event mode */
 350:base/chip/Drivers/STM32F1xx_HAL_Driver/Src/stm32f1xx_hal_exti.c ****   EXTI->EMR = (EXTI->EMR & ~maskline);
 477              		.loc 1 350 3 is_stmt 1 view .LVU157
 478              		.loc 1 350 20 is_stmt 0 view .LVU158
 479 0020 5168     		ldr	r1, [r2, #4]
 480              		.loc 1 350 26 view .LVU159
 481 0022 21EA0303 		bic	r3, r1, r3
 482              	.LVL34:
 483              		.loc 1 350 13 view .LVU160
 484 0026 5360     		str	r3, [r2, #4]
 351:base/chip/Drivers/STM32F1xx_HAL_Driver/Src/stm32f1xx_hal_exti.c **** 
 352:base/chip/Drivers/STM32F1xx_HAL_Driver/Src/stm32f1xx_hal_exti.c ****   /* 3] Clear triggers in case of configurable lines */
 353:base/chip/Drivers/STM32F1xx_HAL_Driver/Src/stm32f1xx_hal_exti.c ****   if ((hexti->Line & EXTI_CONFIG) != 0x00u)
 485              		.loc 1 353 3 is_stmt 1 view .LVU161
 486              		.loc 1 353 13 is_stmt 0 view .LVU162
 487 0028 DCF80030 		ldr	r3, [ip]
 488              		.loc 1 353 6 view .LVU163
 489 002c 13F0007F 		tst	r3, #33554432
 490 0030 22D0     		beq	.L38
 354:base/chip/Drivers/STM32F1xx_HAL_Driver/Src/stm32f1xx_hal_exti.c ****   {
 355:base/chip/Drivers/STM32F1xx_HAL_Driver/Src/stm32f1xx_hal_exti.c ****     EXTI->RTSR = (EXTI->RTSR & ~maskline);
 491              		.loc 1 355 5 is_stmt 1 view .LVU164
 492              		.loc 1 355 23 is_stmt 0 view .LVU165
 493 0032 9368     		ldr	r3, [r2, #8]
 494              		.loc 1 355 30 view .LVU166
 495 0034 0EEA0303 		and	r3, lr, r3
 496              		.loc 1 355 16 view .LVU167
 497 0038 9360     		str	r3, [r2, #8]
 356:base/chip/Drivers/STM32F1xx_HAL_Driver/Src/stm32f1xx_hal_exti.c ****     EXTI->FTSR = (EXTI->FTSR & ~maskline);
 498              		.loc 1 356 5 is_stmt 1 view .LVU168
 499              		.loc 1 356 23 is_stmt 0 view .LVU169
 500 003a D368     		ldr	r3, [r2, #12]
 501              		.loc 1 356 30 view .LVU170
 502 003c 0EEA0303 		and	r3, lr, r3
 503              		.loc 1 356 16 view .LVU171
 504 0040 D360     		str	r3, [r2, #12]
 357:base/chip/Drivers/STM32F1xx_HAL_Driver/Src/stm32f1xx_hal_exti.c **** 
 358:base/chip/Drivers/STM32F1xx_HAL_Driver/Src/stm32f1xx_hal_exti.c ****     /* Get Gpio port selection for gpio lines */
 359:base/chip/Drivers/STM32F1xx_HAL_Driver/Src/stm32f1xx_hal_exti.c ****     if ((hexti->Line & EXTI_GPIO) == EXTI_GPIO)
 505              		.loc 1 359 5 is_stmt 1 view .LVU172
 506              		.loc 1 359 15 is_stmt 0 view .LVU173
 507 0042 DCF80030 		ldr	r3, [ip]
ARM GAS  /tmp/ccXI2Tmb.s 			page 17


 508              		.loc 1 359 22 view .LVU174
 509 0046 03F0C063 		and	r3, r3, #100663296
 510              		.loc 1 359 8 view .LVU175
 511 004a B3F1C06F 		cmp	r3, #100663296
 512 004e 01D0     		beq	.L44
 360:base/chip/Drivers/STM32F1xx_HAL_Driver/Src/stm32f1xx_hal_exti.c ****     {
 361:base/chip/Drivers/STM32F1xx_HAL_Driver/Src/stm32f1xx_hal_exti.c ****       assert_param(IS_EXTI_GPIO_PIN(linepos));
 362:base/chip/Drivers/STM32F1xx_HAL_Driver/Src/stm32f1xx_hal_exti.c **** 
 363:base/chip/Drivers/STM32F1xx_HAL_Driver/Src/stm32f1xx_hal_exti.c ****       regval = AFIO->EXTICR[linepos >> 2u];
 364:base/chip/Drivers/STM32F1xx_HAL_Driver/Src/stm32f1xx_hal_exti.c ****       regval &= ~(AFIO_EXTICR1_EXTI0 << (AFIO_EXTICR1_EXTI1_Pos * (linepos & 0x03u)));
 365:base/chip/Drivers/STM32F1xx_HAL_Driver/Src/stm32f1xx_hal_exti.c ****       AFIO->EXTICR[linepos >> 2u] = regval;
 366:base/chip/Drivers/STM32F1xx_HAL_Driver/Src/stm32f1xx_hal_exti.c ****     }
 367:base/chip/Drivers/STM32F1xx_HAL_Driver/Src/stm32f1xx_hal_exti.c ****   }
 368:base/chip/Drivers/STM32F1xx_HAL_Driver/Src/stm32f1xx_hal_exti.c **** 
 369:base/chip/Drivers/STM32F1xx_HAL_Driver/Src/stm32f1xx_hal_exti.c ****   return HAL_OK;
 513              		.loc 1 369 10 view .LVU176
 514 0050 0020     		movs	r0, #0
 515              	.LVL35:
 516              		.loc 1 369 10 view .LVU177
 517 0052 12E0     		b	.L36
 518              	.LVL36:
 519              	.L44:
 361:base/chip/Drivers/STM32F1xx_HAL_Driver/Src/stm32f1xx_hal_exti.c **** 
 520              		.loc 1 361 7 is_stmt 1 view .LVU178
 363:base/chip/Drivers/STM32F1xx_HAL_Driver/Src/stm32f1xx_hal_exti.c ****       regval &= ~(AFIO_EXTICR1_EXTI0 << (AFIO_EXTICR1_EXTI1_Pos * (linepos & 0x03u)));
 521              		.loc 1 363 7 view .LVU179
 363:base/chip/Drivers/STM32F1xx_HAL_Driver/Src/stm32f1xx_hal_exti.c ****       regval &= ~(AFIO_EXTICR1_EXTI0 << (AFIO_EXTICR1_EXTI1_Pos * (linepos & 0x03u)));
 522              		.loc 1 363 37 is_stmt 0 view .LVU180
 523 0054 8008     		lsrs	r0, r0, #2
 524              	.LVL37:
 363:base/chip/Drivers/STM32F1xx_HAL_Driver/Src/stm32f1xx_hal_exti.c ****       regval &= ~(AFIO_EXTICR1_EXTI0 << (AFIO_EXTICR1_EXTI1_Pos * (linepos & 0x03u)));
 525              		.loc 1 363 14 view .LVU181
 526 0056 0A49     		ldr	r1, .L45+4
 527 0058 0230     		adds	r0, r0, #2
 528 005a 51F82030 		ldr	r3, [r1, r0, lsl #2]
 529              	.LVL38:
 364:base/chip/Drivers/STM32F1xx_HAL_Driver/Src/stm32f1xx_hal_exti.c ****       AFIO->EXTICR[linepos >> 2u] = regval;
 530              		.loc 1 364 7 is_stmt 1 view .LVU182
 364:base/chip/Drivers/STM32F1xx_HAL_Driver/Src/stm32f1xx_hal_exti.c ****       AFIO->EXTICR[linepos >> 2u] = regval;
 531              		.loc 1 364 76 is_stmt 0 view .LVU183
 532 005e 04F00304 		and	r4, r4, #3
 533              	.LVL39:
 364:base/chip/Drivers/STM32F1xx_HAL_Driver/Src/stm32f1xx_hal_exti.c ****       AFIO->EXTICR[linepos >> 2u] = regval;
 534              		.loc 1 364 65 view .LVU184
 535 0062 A400     		lsls	r4, r4, #2
 364:base/chip/Drivers/STM32F1xx_HAL_Driver/Src/stm32f1xx_hal_exti.c ****       AFIO->EXTICR[linepos >> 2u] = regval;
 536              		.loc 1 364 38 view .LVU185
 537 0064 0F22     		movs	r2, #15
 538 0066 A240     		lsls	r2, r2, r4
 364:base/chip/Drivers/STM32F1xx_HAL_Driver/Src/stm32f1xx_hal_exti.c ****       AFIO->EXTICR[linepos >> 2u] = regval;
 539              		.loc 1 364 14 view .LVU186
 540 0068 23EA0203 		bic	r3, r3, r2
 541              	.LVL40:
 365:base/chip/Drivers/STM32F1xx_HAL_Driver/Src/stm32f1xx_hal_exti.c ****     }
 542              		.loc 1 365 7 is_stmt 1 view .LVU187
 365:base/chip/Drivers/STM32F1xx_HAL_Driver/Src/stm32f1xx_hal_exti.c ****     }
 543              		.loc 1 365 35 is_stmt 0 view .LVU188
ARM GAS  /tmp/ccXI2Tmb.s 			page 18


 544 006c 41F82030 		str	r3, [r1, r0, lsl #2]
 545              		.loc 1 369 10 view .LVU189
 546 0070 0020     		movs	r0, #0
 547 0072 02E0     		b	.L36
 548              	.LVL41:
 549              	.L37:
 550              	.LCFI5:
 551              		.cfi_def_cfa_offset 0
 552              		.cfi_restore 4
 553              		.cfi_restore 14
 336:base/chip/Drivers/STM32F1xx_HAL_Driver/Src/stm32f1xx_hal_exti.c ****   }
 554              		.loc 1 336 12 view .LVU190
 555 0074 0120     		movs	r0, #1
 556              	.LVL42:
 370:base/chip/Drivers/STM32F1xx_HAL_Driver/Src/stm32f1xx_hal_exti.c **** }
 557              		.loc 1 370 1 view .LVU191
 558 0076 7047     		bx	lr
 559              	.LVL43:
 560              	.L38:
 561              	.LCFI6:
 562              		.cfi_def_cfa_offset 8
 563              		.cfi_offset 4, -8
 564              		.cfi_offset 14, -4
 369:base/chip/Drivers/STM32F1xx_HAL_Driver/Src/stm32f1xx_hal_exti.c **** }
 565              		.loc 1 369 10 view .LVU192
 566 0078 0020     		movs	r0, #0
 567              	.LVL44:
 568              	.L36:
 569              		.loc 1 370 1 view .LVU193
 570 007a 10BD     		pop	{r4, pc}
 571              	.L46:
 572              		.align	2
 573              	.L45:
 574 007c 00040140 		.word	1073808384
 575 0080 00000140 		.word	1073807360
 576              		.cfi_endproc
 577              	.LFE67:
 579              		.section	.text.HAL_EXTI_RegisterCallback,"ax",%progbits
 580              		.align	1
 581              		.global	HAL_EXTI_RegisterCallback
 582              		.syntax unified
 583              		.thumb
 584              		.thumb_func
 585              		.fpu softvfp
 587              	HAL_EXTI_RegisterCallback:
 588              	.LVL45:
 589              	.LFB68:
 371:base/chip/Drivers/STM32F1xx_HAL_Driver/Src/stm32f1xx_hal_exti.c **** 
 372:base/chip/Drivers/STM32F1xx_HAL_Driver/Src/stm32f1xx_hal_exti.c **** /**
 373:base/chip/Drivers/STM32F1xx_HAL_Driver/Src/stm32f1xx_hal_exti.c ****   * @brief  Register callback for a dedicated Exti line.
 374:base/chip/Drivers/STM32F1xx_HAL_Driver/Src/stm32f1xx_hal_exti.c ****   * @param  hexti Exti handle.
 375:base/chip/Drivers/STM32F1xx_HAL_Driver/Src/stm32f1xx_hal_exti.c ****   * @param  CallbackID User callback identifier.
 376:base/chip/Drivers/STM32F1xx_HAL_Driver/Src/stm32f1xx_hal_exti.c ****   *         This parameter can be one of @arg @ref EXTI_CallbackIDTypeDef values.
 377:base/chip/Drivers/STM32F1xx_HAL_Driver/Src/stm32f1xx_hal_exti.c ****   * @param  pPendingCbfn function pointer to be stored as callback.
 378:base/chip/Drivers/STM32F1xx_HAL_Driver/Src/stm32f1xx_hal_exti.c ****   * @retval HAL Status.
 379:base/chip/Drivers/STM32F1xx_HAL_Driver/Src/stm32f1xx_hal_exti.c ****   */
 380:base/chip/Drivers/STM32F1xx_HAL_Driver/Src/stm32f1xx_hal_exti.c **** HAL_StatusTypeDef HAL_EXTI_RegisterCallback(EXTI_HandleTypeDef *hexti, EXTI_CallbackIDTypeDef Callb
ARM GAS  /tmp/ccXI2Tmb.s 			page 19


 381:base/chip/Drivers/STM32F1xx_HAL_Driver/Src/stm32f1xx_hal_exti.c **** {
 590              		.loc 1 381 1 is_stmt 1 view -0
 591              		.cfi_startproc
 592              		@ args = 0, pretend = 0, frame = 0
 593              		@ frame_needed = 0, uses_anonymous_args = 0
 594              		@ link register save eliminated.
 595              		.loc 1 381 1 is_stmt 0 view .LVU195
 596 0000 0346     		mov	r3, r0
 382:base/chip/Drivers/STM32F1xx_HAL_Driver/Src/stm32f1xx_hal_exti.c ****   HAL_StatusTypeDef status = HAL_OK;
 597              		.loc 1 382 3 is_stmt 1 view .LVU196
 598              	.LVL46:
 383:base/chip/Drivers/STM32F1xx_HAL_Driver/Src/stm32f1xx_hal_exti.c **** 
 384:base/chip/Drivers/STM32F1xx_HAL_Driver/Src/stm32f1xx_hal_exti.c ****   switch (CallbackID)
 599              		.loc 1 384 3 view .LVU197
 600 0002 0846     		mov	r0, r1
 601              	.LVL47:
 602              		.loc 1 384 3 is_stmt 0 view .LVU198
 603 0004 09B9     		cbnz	r1, .L49
 385:base/chip/Drivers/STM32F1xx_HAL_Driver/Src/stm32f1xx_hal_exti.c ****   {
 386:base/chip/Drivers/STM32F1xx_HAL_Driver/Src/stm32f1xx_hal_exti.c ****     case  HAL_EXTI_COMMON_CB_ID:
 387:base/chip/Drivers/STM32F1xx_HAL_Driver/Src/stm32f1xx_hal_exti.c ****       hexti->PendingCallback = pPendingCbfn;
 604              		.loc 1 387 7 is_stmt 1 view .LVU199
 605              		.loc 1 387 30 is_stmt 0 view .LVU200
 606 0006 5A60     		str	r2, [r3, #4]
 388:base/chip/Drivers/STM32F1xx_HAL_Driver/Src/stm32f1xx_hal_exti.c ****       break;
 607              		.loc 1 388 7 is_stmt 1 view .LVU201
 608 0008 7047     		bx	lr
 609              	.L49:
 389:base/chip/Drivers/STM32F1xx_HAL_Driver/Src/stm32f1xx_hal_exti.c **** 
 390:base/chip/Drivers/STM32F1xx_HAL_Driver/Src/stm32f1xx_hal_exti.c ****     default:
 391:base/chip/Drivers/STM32F1xx_HAL_Driver/Src/stm32f1xx_hal_exti.c ****       status = HAL_ERROR;
 610              		.loc 1 391 14 is_stmt 0 view .LVU202
 611 000a 0120     		movs	r0, #1
 612              	.LVL48:
 392:base/chip/Drivers/STM32F1xx_HAL_Driver/Src/stm32f1xx_hal_exti.c ****       break;
 393:base/chip/Drivers/STM32F1xx_HAL_Driver/Src/stm32f1xx_hal_exti.c ****   }
 394:base/chip/Drivers/STM32F1xx_HAL_Driver/Src/stm32f1xx_hal_exti.c **** 
 395:base/chip/Drivers/STM32F1xx_HAL_Driver/Src/stm32f1xx_hal_exti.c ****   return status;
 613              		.loc 1 395 3 is_stmt 1 view .LVU203
 396:base/chip/Drivers/STM32F1xx_HAL_Driver/Src/stm32f1xx_hal_exti.c **** }
 614              		.loc 1 396 1 is_stmt 0 view .LVU204
 615 000c 7047     		bx	lr
 616              		.cfi_endproc
 617              	.LFE68:
 619              		.section	.text.HAL_EXTI_GetHandle,"ax",%progbits
 620              		.align	1
 621              		.global	HAL_EXTI_GetHandle
 622              		.syntax unified
 623              		.thumb
 624              		.thumb_func
 625              		.fpu softvfp
 627              	HAL_EXTI_GetHandle:
 628              	.LVL49:
 629              	.LFB69:
 397:base/chip/Drivers/STM32F1xx_HAL_Driver/Src/stm32f1xx_hal_exti.c **** 
 398:base/chip/Drivers/STM32F1xx_HAL_Driver/Src/stm32f1xx_hal_exti.c **** /**
 399:base/chip/Drivers/STM32F1xx_HAL_Driver/Src/stm32f1xx_hal_exti.c ****   * @brief  Store line number as handle private field.
ARM GAS  /tmp/ccXI2Tmb.s 			page 20


 400:base/chip/Drivers/STM32F1xx_HAL_Driver/Src/stm32f1xx_hal_exti.c ****   * @param  hexti Exti handle.
 401:base/chip/Drivers/STM32F1xx_HAL_Driver/Src/stm32f1xx_hal_exti.c ****   * @param  ExtiLine Exti line number.
 402:base/chip/Drivers/STM32F1xx_HAL_Driver/Src/stm32f1xx_hal_exti.c ****   *         This parameter can be from 0 to @ref EXTI_LINE_NB.
 403:base/chip/Drivers/STM32F1xx_HAL_Driver/Src/stm32f1xx_hal_exti.c ****   * @retval HAL Status.
 404:base/chip/Drivers/STM32F1xx_HAL_Driver/Src/stm32f1xx_hal_exti.c ****   */
 405:base/chip/Drivers/STM32F1xx_HAL_Driver/Src/stm32f1xx_hal_exti.c **** HAL_StatusTypeDef HAL_EXTI_GetHandle(EXTI_HandleTypeDef *hexti, uint32_t ExtiLine)
 406:base/chip/Drivers/STM32F1xx_HAL_Driver/Src/stm32f1xx_hal_exti.c **** {
 630              		.loc 1 406 1 is_stmt 1 view -0
 631              		.cfi_startproc
 632              		@ args = 0, pretend = 0, frame = 0
 633              		@ frame_needed = 0, uses_anonymous_args = 0
 634              		@ link register save eliminated.
 407:base/chip/Drivers/STM32F1xx_HAL_Driver/Src/stm32f1xx_hal_exti.c ****   /* Check the parameters */
 408:base/chip/Drivers/STM32F1xx_HAL_Driver/Src/stm32f1xx_hal_exti.c ****   assert_param(IS_EXTI_LINE(ExtiLine));
 635              		.loc 1 408 3 view .LVU206
 409:base/chip/Drivers/STM32F1xx_HAL_Driver/Src/stm32f1xx_hal_exti.c **** 
 410:base/chip/Drivers/STM32F1xx_HAL_Driver/Src/stm32f1xx_hal_exti.c ****   /* Check null pointer */
 411:base/chip/Drivers/STM32F1xx_HAL_Driver/Src/stm32f1xx_hal_exti.c ****   if (hexti == NULL)
 636              		.loc 1 411 3 view .LVU207
 637              		.loc 1 411 6 is_stmt 0 view .LVU208
 638 0000 10B1     		cbz	r0, .L52
 412:base/chip/Drivers/STM32F1xx_HAL_Driver/Src/stm32f1xx_hal_exti.c ****   {
 413:base/chip/Drivers/STM32F1xx_HAL_Driver/Src/stm32f1xx_hal_exti.c ****     return HAL_ERROR;
 414:base/chip/Drivers/STM32F1xx_HAL_Driver/Src/stm32f1xx_hal_exti.c ****   }
 415:base/chip/Drivers/STM32F1xx_HAL_Driver/Src/stm32f1xx_hal_exti.c ****   else
 416:base/chip/Drivers/STM32F1xx_HAL_Driver/Src/stm32f1xx_hal_exti.c ****   {
 417:base/chip/Drivers/STM32F1xx_HAL_Driver/Src/stm32f1xx_hal_exti.c ****     /* Store line number as handle private field */
 418:base/chip/Drivers/STM32F1xx_HAL_Driver/Src/stm32f1xx_hal_exti.c ****     hexti->Line = ExtiLine;
 639              		.loc 1 418 5 is_stmt 1 view .LVU209
 640              		.loc 1 418 17 is_stmt 0 view .LVU210
 641 0002 0160     		str	r1, [r0]
 419:base/chip/Drivers/STM32F1xx_HAL_Driver/Src/stm32f1xx_hal_exti.c **** 
 420:base/chip/Drivers/STM32F1xx_HAL_Driver/Src/stm32f1xx_hal_exti.c ****     return HAL_OK;
 642              		.loc 1 420 5 is_stmt 1 view .LVU211
 643              		.loc 1 420 12 is_stmt 0 view .LVU212
 644 0004 0020     		movs	r0, #0
 645              	.LVL50:
 646              		.loc 1 420 12 view .LVU213
 647 0006 7047     		bx	lr
 648              	.LVL51:
 649              	.L52:
 413:base/chip/Drivers/STM32F1xx_HAL_Driver/Src/stm32f1xx_hal_exti.c ****   }
 650              		.loc 1 413 12 view .LVU214
 651 0008 0120     		movs	r0, #1
 652              	.LVL52:
 421:base/chip/Drivers/STM32F1xx_HAL_Driver/Src/stm32f1xx_hal_exti.c ****   }
 422:base/chip/Drivers/STM32F1xx_HAL_Driver/Src/stm32f1xx_hal_exti.c **** }
 653              		.loc 1 422 1 view .LVU215
 654 000a 7047     		bx	lr
 655              		.cfi_endproc
 656              	.LFE69:
 658              		.section	.text.HAL_EXTI_IRQHandler,"ax",%progbits
 659              		.align	1
 660              		.global	HAL_EXTI_IRQHandler
 661              		.syntax unified
 662              		.thumb
 663              		.thumb_func
ARM GAS  /tmp/ccXI2Tmb.s 			page 21


 664              		.fpu softvfp
 666              	HAL_EXTI_IRQHandler:
 667              	.LVL53:
 668              	.LFB70:
 423:base/chip/Drivers/STM32F1xx_HAL_Driver/Src/stm32f1xx_hal_exti.c **** 
 424:base/chip/Drivers/STM32F1xx_HAL_Driver/Src/stm32f1xx_hal_exti.c **** /**
 425:base/chip/Drivers/STM32F1xx_HAL_Driver/Src/stm32f1xx_hal_exti.c ****   * @}
 426:base/chip/Drivers/STM32F1xx_HAL_Driver/Src/stm32f1xx_hal_exti.c ****   */
 427:base/chip/Drivers/STM32F1xx_HAL_Driver/Src/stm32f1xx_hal_exti.c **** 
 428:base/chip/Drivers/STM32F1xx_HAL_Driver/Src/stm32f1xx_hal_exti.c **** /** @addtogroup EXTI_Exported_Functions_Group2
 429:base/chip/Drivers/STM32F1xx_HAL_Driver/Src/stm32f1xx_hal_exti.c ****   *  @brief EXTI IO functions.
 430:base/chip/Drivers/STM32F1xx_HAL_Driver/Src/stm32f1xx_hal_exti.c ****   *
 431:base/chip/Drivers/STM32F1xx_HAL_Driver/Src/stm32f1xx_hal_exti.c **** @verbatim
 432:base/chip/Drivers/STM32F1xx_HAL_Driver/Src/stm32f1xx_hal_exti.c ****  ===============================================================================
 433:base/chip/Drivers/STM32F1xx_HAL_Driver/Src/stm32f1xx_hal_exti.c ****                        ##### IO operation functions #####
 434:base/chip/Drivers/STM32F1xx_HAL_Driver/Src/stm32f1xx_hal_exti.c ****  ===============================================================================
 435:base/chip/Drivers/STM32F1xx_HAL_Driver/Src/stm32f1xx_hal_exti.c **** 
 436:base/chip/Drivers/STM32F1xx_HAL_Driver/Src/stm32f1xx_hal_exti.c **** @endverbatim
 437:base/chip/Drivers/STM32F1xx_HAL_Driver/Src/stm32f1xx_hal_exti.c ****   * @{
 438:base/chip/Drivers/STM32F1xx_HAL_Driver/Src/stm32f1xx_hal_exti.c ****   */
 439:base/chip/Drivers/STM32F1xx_HAL_Driver/Src/stm32f1xx_hal_exti.c **** 
 440:base/chip/Drivers/STM32F1xx_HAL_Driver/Src/stm32f1xx_hal_exti.c **** /**
 441:base/chip/Drivers/STM32F1xx_HAL_Driver/Src/stm32f1xx_hal_exti.c ****   * @brief  Handle EXTI interrupt request.
 442:base/chip/Drivers/STM32F1xx_HAL_Driver/Src/stm32f1xx_hal_exti.c ****   * @param  hexti Exti handle.
 443:base/chip/Drivers/STM32F1xx_HAL_Driver/Src/stm32f1xx_hal_exti.c ****   * @retval none.
 444:base/chip/Drivers/STM32F1xx_HAL_Driver/Src/stm32f1xx_hal_exti.c ****   */
 445:base/chip/Drivers/STM32F1xx_HAL_Driver/Src/stm32f1xx_hal_exti.c **** void HAL_EXTI_IRQHandler(EXTI_HandleTypeDef *hexti)
 446:base/chip/Drivers/STM32F1xx_HAL_Driver/Src/stm32f1xx_hal_exti.c **** {
 669              		.loc 1 446 1 is_stmt 1 view -0
 670              		.cfi_startproc
 671              		@ args = 0, pretend = 0, frame = 0
 672              		@ frame_needed = 0, uses_anonymous_args = 0
 673              		.loc 1 446 1 is_stmt 0 view .LVU217
 674 0000 08B5     		push	{r3, lr}
 675              	.LCFI7:
 676              		.cfi_def_cfa_offset 8
 677              		.cfi_offset 3, -8
 678              		.cfi_offset 14, -4
 447:base/chip/Drivers/STM32F1xx_HAL_Driver/Src/stm32f1xx_hal_exti.c ****   uint32_t regval;
 679              		.loc 1 447 3 is_stmt 1 view .LVU218
 448:base/chip/Drivers/STM32F1xx_HAL_Driver/Src/stm32f1xx_hal_exti.c ****   uint32_t maskline;
 680              		.loc 1 448 3 view .LVU219
 449:base/chip/Drivers/STM32F1xx_HAL_Driver/Src/stm32f1xx_hal_exti.c **** 
 450:base/chip/Drivers/STM32F1xx_HAL_Driver/Src/stm32f1xx_hal_exti.c ****   /* Compute line mask */
 451:base/chip/Drivers/STM32F1xx_HAL_Driver/Src/stm32f1xx_hal_exti.c ****   maskline = (1uL << (hexti->Line & EXTI_PIN_MASK));
 681              		.loc 1 451 3 view .LVU220
 682              		.loc 1 451 28 is_stmt 0 view .LVU221
 683 0002 0368     		ldr	r3, [r0]
 684              		.loc 1 451 35 view .LVU222
 685 0004 03F01F02 		and	r2, r3, #31
 686              		.loc 1 451 12 view .LVU223
 687 0008 0123     		movs	r3, #1
 688 000a 9340     		lsls	r3, r3, r2
 689              	.LVL54:
 452:base/chip/Drivers/STM32F1xx_HAL_Driver/Src/stm32f1xx_hal_exti.c **** 
 453:base/chip/Drivers/STM32F1xx_HAL_Driver/Src/stm32f1xx_hal_exti.c ****   /* Get pending bit  */
 454:base/chip/Drivers/STM32F1xx_HAL_Driver/Src/stm32f1xx_hal_exti.c ****   regval = (EXTI->PR & maskline);
ARM GAS  /tmp/ccXI2Tmb.s 			page 22


 690              		.loc 1 454 3 is_stmt 1 view .LVU224
 691              		.loc 1 454 17 is_stmt 0 view .LVU225
 692 000c 044A     		ldr	r2, .L56
 693 000e 5269     		ldr	r2, [r2, #20]
 694              	.LVL55:
 455:base/chip/Drivers/STM32F1xx_HAL_Driver/Src/stm32f1xx_hal_exti.c ****   if (regval != 0x00u)
 695              		.loc 1 455 3 is_stmt 1 view .LVU226
 696              		.loc 1 455 6 is_stmt 0 view .LVU227
 697 0010 1A42     		tst	r2, r3
 698 0012 04D0     		beq	.L53
 456:base/chip/Drivers/STM32F1xx_HAL_Driver/Src/stm32f1xx_hal_exti.c ****   {
 457:base/chip/Drivers/STM32F1xx_HAL_Driver/Src/stm32f1xx_hal_exti.c ****     /* Clear pending bit */
 458:base/chip/Drivers/STM32F1xx_HAL_Driver/Src/stm32f1xx_hal_exti.c ****     EXTI->PR = maskline;
 699              		.loc 1 458 5 is_stmt 1 view .LVU228
 700              		.loc 1 458 14 is_stmt 0 view .LVU229
 701 0014 024A     		ldr	r2, .L56
 702              	.LVL56:
 703              		.loc 1 458 14 view .LVU230
 704 0016 5361     		str	r3, [r2, #20]
 459:base/chip/Drivers/STM32F1xx_HAL_Driver/Src/stm32f1xx_hal_exti.c **** 
 460:base/chip/Drivers/STM32F1xx_HAL_Driver/Src/stm32f1xx_hal_exti.c ****     /* Call callback */
 461:base/chip/Drivers/STM32F1xx_HAL_Driver/Src/stm32f1xx_hal_exti.c ****     if (hexti->PendingCallback != NULL)
 705              		.loc 1 461 5 is_stmt 1 view .LVU231
 706              		.loc 1 461 14 is_stmt 0 view .LVU232
 707 0018 4368     		ldr	r3, [r0, #4]
 708              	.LVL57:
 709              		.loc 1 461 8 view .LVU233
 710 001a 03B1     		cbz	r3, .L53
 462:base/chip/Drivers/STM32F1xx_HAL_Driver/Src/stm32f1xx_hal_exti.c ****     {
 463:base/chip/Drivers/STM32F1xx_HAL_Driver/Src/stm32f1xx_hal_exti.c ****       hexti->PendingCallback();
 711              		.loc 1 463 7 is_stmt 1 view .LVU234
 712 001c 9847     		blx	r3
 713              	.LVL58:
 714              	.L53:
 464:base/chip/Drivers/STM32F1xx_HAL_Driver/Src/stm32f1xx_hal_exti.c ****     }
 465:base/chip/Drivers/STM32F1xx_HAL_Driver/Src/stm32f1xx_hal_exti.c ****   }
 466:base/chip/Drivers/STM32F1xx_HAL_Driver/Src/stm32f1xx_hal_exti.c **** }
 715              		.loc 1 466 1 is_stmt 0 view .LVU235
 716 001e 08BD     		pop	{r3, pc}
 717              	.L57:
 718              		.align	2
 719              	.L56:
 720 0020 00040140 		.word	1073808384
 721              		.cfi_endproc
 722              	.LFE70:
 724              		.section	.text.HAL_EXTI_GetPending,"ax",%progbits
 725              		.align	1
 726              		.global	HAL_EXTI_GetPending
 727              		.syntax unified
 728              		.thumb
 729              		.thumb_func
 730              		.fpu softvfp
 732              	HAL_EXTI_GetPending:
 733              	.LVL59:
 734              	.LFB71:
 467:base/chip/Drivers/STM32F1xx_HAL_Driver/Src/stm32f1xx_hal_exti.c **** 
 468:base/chip/Drivers/STM32F1xx_HAL_Driver/Src/stm32f1xx_hal_exti.c **** /**
ARM GAS  /tmp/ccXI2Tmb.s 			page 23


 469:base/chip/Drivers/STM32F1xx_HAL_Driver/Src/stm32f1xx_hal_exti.c ****   * @brief  Get interrupt pending bit of a dedicated line.
 470:base/chip/Drivers/STM32F1xx_HAL_Driver/Src/stm32f1xx_hal_exti.c ****   * @param  hexti Exti handle.
 471:base/chip/Drivers/STM32F1xx_HAL_Driver/Src/stm32f1xx_hal_exti.c ****   * @param  Edge Specify which pending edge as to be checked.
 472:base/chip/Drivers/STM32F1xx_HAL_Driver/Src/stm32f1xx_hal_exti.c ****   *         This parameter can be one of the following values:
 473:base/chip/Drivers/STM32F1xx_HAL_Driver/Src/stm32f1xx_hal_exti.c ****   *           @arg @ref EXTI_TRIGGER_RISING_FALLING
 474:base/chip/Drivers/STM32F1xx_HAL_Driver/Src/stm32f1xx_hal_exti.c ****   *         This parameter is kept for compatibility with other series.
 475:base/chip/Drivers/STM32F1xx_HAL_Driver/Src/stm32f1xx_hal_exti.c ****   * @retval 1 if interrupt is pending else 0.
 476:base/chip/Drivers/STM32F1xx_HAL_Driver/Src/stm32f1xx_hal_exti.c ****   */
 477:base/chip/Drivers/STM32F1xx_HAL_Driver/Src/stm32f1xx_hal_exti.c **** uint32_t HAL_EXTI_GetPending(EXTI_HandleTypeDef *hexti, uint32_t Edge)
 478:base/chip/Drivers/STM32F1xx_HAL_Driver/Src/stm32f1xx_hal_exti.c **** {
 735              		.loc 1 478 1 is_stmt 1 view -0
 736              		.cfi_startproc
 737              		@ args = 0, pretend = 0, frame = 0
 738              		@ frame_needed = 0, uses_anonymous_args = 0
 739              		@ link register save eliminated.
 479:base/chip/Drivers/STM32F1xx_HAL_Driver/Src/stm32f1xx_hal_exti.c ****   uint32_t regval;
 740              		.loc 1 479 3 view .LVU237
 480:base/chip/Drivers/STM32F1xx_HAL_Driver/Src/stm32f1xx_hal_exti.c ****   uint32_t maskline;
 741              		.loc 1 480 3 view .LVU238
 481:base/chip/Drivers/STM32F1xx_HAL_Driver/Src/stm32f1xx_hal_exti.c ****   uint32_t linepos;
 742              		.loc 1 481 3 view .LVU239
 482:base/chip/Drivers/STM32F1xx_HAL_Driver/Src/stm32f1xx_hal_exti.c **** 
 483:base/chip/Drivers/STM32F1xx_HAL_Driver/Src/stm32f1xx_hal_exti.c ****   /* Check parameters */
 484:base/chip/Drivers/STM32F1xx_HAL_Driver/Src/stm32f1xx_hal_exti.c ****   assert_param(IS_EXTI_LINE(hexti->Line));
 743              		.loc 1 484 3 view .LVU240
 485:base/chip/Drivers/STM32F1xx_HAL_Driver/Src/stm32f1xx_hal_exti.c ****   assert_param(IS_EXTI_CONFIG_LINE(hexti->Line));
 744              		.loc 1 485 3 view .LVU241
 486:base/chip/Drivers/STM32F1xx_HAL_Driver/Src/stm32f1xx_hal_exti.c ****   assert_param(IS_EXTI_PENDING_EDGE(Edge));
 745              		.loc 1 486 3 view .LVU242
 487:base/chip/Drivers/STM32F1xx_HAL_Driver/Src/stm32f1xx_hal_exti.c **** 
 488:base/chip/Drivers/STM32F1xx_HAL_Driver/Src/stm32f1xx_hal_exti.c ****   /* Compute line mask */
 489:base/chip/Drivers/STM32F1xx_HAL_Driver/Src/stm32f1xx_hal_exti.c ****   linepos = (hexti->Line & EXTI_PIN_MASK);
 746              		.loc 1 489 3 view .LVU243
 747              		.loc 1 489 19 is_stmt 0 view .LVU244
 748 0000 0368     		ldr	r3, [r0]
 749              		.loc 1 489 11 view .LVU245
 750 0002 03F01F03 		and	r3, r3, #31
 751              	.LVL60:
 490:base/chip/Drivers/STM32F1xx_HAL_Driver/Src/stm32f1xx_hal_exti.c ****   maskline = (1uL << linepos);
 752              		.loc 1 490 3 is_stmt 1 view .LVU246
 753              		.loc 1 490 12 is_stmt 0 view .LVU247
 754 0006 0122     		movs	r2, #1
 755 0008 9A40     		lsls	r2, r2, r3
 756              	.LVL61:
 491:base/chip/Drivers/STM32F1xx_HAL_Driver/Src/stm32f1xx_hal_exti.c **** 
 492:base/chip/Drivers/STM32F1xx_HAL_Driver/Src/stm32f1xx_hal_exti.c ****   /* return 1 if bit is set else 0 */
 493:base/chip/Drivers/STM32F1xx_HAL_Driver/Src/stm32f1xx_hal_exti.c ****   regval = ((EXTI->PR & maskline) >> linepos);
 757              		.loc 1 493 3 is_stmt 1 view .LVU248
 758              		.loc 1 493 18 is_stmt 0 view .LVU249
 759 000a 0249     		ldr	r1, .L59
 760              	.LVL62:
 761              		.loc 1 493 18 view .LVU250
 762 000c 4869     		ldr	r0, [r1, #20]
 763              	.LVL63:
 764              		.loc 1 493 23 view .LVU251
 765 000e 1040     		ands	r0, r0, r2
 766              	.LVL64:
ARM GAS  /tmp/ccXI2Tmb.s 			page 24


 494:base/chip/Drivers/STM32F1xx_HAL_Driver/Src/stm32f1xx_hal_exti.c ****   return regval;
 767              		.loc 1 494 3 is_stmt 1 view .LVU252
 495:base/chip/Drivers/STM32F1xx_HAL_Driver/Src/stm32f1xx_hal_exti.c **** }
 768              		.loc 1 495 1 is_stmt 0 view .LVU253
 769 0010 D840     		lsrs	r0, r0, r3
 770              	.LVL65:
 771              		.loc 1 495 1 view .LVU254
 772 0012 7047     		bx	lr
 773              	.L60:
 774              		.align	2
 775              	.L59:
 776 0014 00040140 		.word	1073808384
 777              		.cfi_endproc
 778              	.LFE71:
 780              		.section	.text.HAL_EXTI_ClearPending,"ax",%progbits
 781              		.align	1
 782              		.global	HAL_EXTI_ClearPending
 783              		.syntax unified
 784              		.thumb
 785              		.thumb_func
 786              		.fpu softvfp
 788              	HAL_EXTI_ClearPending:
 789              	.LVL66:
 790              	.LFB72:
 496:base/chip/Drivers/STM32F1xx_HAL_Driver/Src/stm32f1xx_hal_exti.c **** 
 497:base/chip/Drivers/STM32F1xx_HAL_Driver/Src/stm32f1xx_hal_exti.c **** /**
 498:base/chip/Drivers/STM32F1xx_HAL_Driver/Src/stm32f1xx_hal_exti.c ****   * @brief  Clear interrupt pending bit of a dedicated line.
 499:base/chip/Drivers/STM32F1xx_HAL_Driver/Src/stm32f1xx_hal_exti.c ****   * @param  hexti Exti handle.
 500:base/chip/Drivers/STM32F1xx_HAL_Driver/Src/stm32f1xx_hal_exti.c ****   * @param  Edge Specify which pending edge as to be clear.
 501:base/chip/Drivers/STM32F1xx_HAL_Driver/Src/stm32f1xx_hal_exti.c ****   *         This parameter can be one of the following values:
 502:base/chip/Drivers/STM32F1xx_HAL_Driver/Src/stm32f1xx_hal_exti.c ****   *           @arg @ref EXTI_TRIGGER_RISING_FALLING
 503:base/chip/Drivers/STM32F1xx_HAL_Driver/Src/stm32f1xx_hal_exti.c ****   *         This parameter is kept for compatibility with other series.
 504:base/chip/Drivers/STM32F1xx_HAL_Driver/Src/stm32f1xx_hal_exti.c ****   * @retval None.
 505:base/chip/Drivers/STM32F1xx_HAL_Driver/Src/stm32f1xx_hal_exti.c ****   */
 506:base/chip/Drivers/STM32F1xx_HAL_Driver/Src/stm32f1xx_hal_exti.c **** void HAL_EXTI_ClearPending(EXTI_HandleTypeDef *hexti, uint32_t Edge)
 507:base/chip/Drivers/STM32F1xx_HAL_Driver/Src/stm32f1xx_hal_exti.c **** {
 791              		.loc 1 507 1 is_stmt 1 view -0
 792              		.cfi_startproc
 793              		@ args = 0, pretend = 0, frame = 0
 794              		@ frame_needed = 0, uses_anonymous_args = 0
 795              		@ link register save eliminated.
 508:base/chip/Drivers/STM32F1xx_HAL_Driver/Src/stm32f1xx_hal_exti.c ****   uint32_t maskline;
 796              		.loc 1 508 3 view .LVU256
 509:base/chip/Drivers/STM32F1xx_HAL_Driver/Src/stm32f1xx_hal_exti.c **** 
 510:base/chip/Drivers/STM32F1xx_HAL_Driver/Src/stm32f1xx_hal_exti.c ****   /* Check parameters */
 511:base/chip/Drivers/STM32F1xx_HAL_Driver/Src/stm32f1xx_hal_exti.c ****   assert_param(IS_EXTI_LINE(hexti->Line));
 797              		.loc 1 511 3 view .LVU257
 512:base/chip/Drivers/STM32F1xx_HAL_Driver/Src/stm32f1xx_hal_exti.c ****   assert_param(IS_EXTI_CONFIG_LINE(hexti->Line));
 798              		.loc 1 512 3 view .LVU258
 513:base/chip/Drivers/STM32F1xx_HAL_Driver/Src/stm32f1xx_hal_exti.c ****   assert_param(IS_EXTI_PENDING_EDGE(Edge));
 799              		.loc 1 513 3 view .LVU259
 514:base/chip/Drivers/STM32F1xx_HAL_Driver/Src/stm32f1xx_hal_exti.c **** 
 515:base/chip/Drivers/STM32F1xx_HAL_Driver/Src/stm32f1xx_hal_exti.c ****   /* Compute line mask */
 516:base/chip/Drivers/STM32F1xx_HAL_Driver/Src/stm32f1xx_hal_exti.c ****   maskline = (1uL << (hexti->Line & EXTI_PIN_MASK));
 800              		.loc 1 516 3 view .LVU260
 801              		.loc 1 516 28 is_stmt 0 view .LVU261
 802 0000 0268     		ldr	r2, [r0]
ARM GAS  /tmp/ccXI2Tmb.s 			page 25


 803              		.loc 1 516 35 view .LVU262
 804 0002 02F01F02 		and	r2, r2, #31
 805              		.loc 1 516 12 view .LVU263
 806 0006 0123     		movs	r3, #1
 807 0008 9340     		lsls	r3, r3, r2
 808              	.LVL67:
 517:base/chip/Drivers/STM32F1xx_HAL_Driver/Src/stm32f1xx_hal_exti.c **** 
 518:base/chip/Drivers/STM32F1xx_HAL_Driver/Src/stm32f1xx_hal_exti.c ****   /* Clear Pending bit */
 519:base/chip/Drivers/STM32F1xx_HAL_Driver/Src/stm32f1xx_hal_exti.c ****   EXTI->PR =  maskline;
 809              		.loc 1 519 3 is_stmt 1 view .LVU264
 810              		.loc 1 519 12 is_stmt 0 view .LVU265
 811 000a 014A     		ldr	r2, .L62
 812 000c 5361     		str	r3, [r2, #20]
 520:base/chip/Drivers/STM32F1xx_HAL_Driver/Src/stm32f1xx_hal_exti.c **** }
 813              		.loc 1 520 1 view .LVU266
 814 000e 7047     		bx	lr
 815              	.L63:
 816              		.align	2
 817              	.L62:
 818 0010 00040140 		.word	1073808384
 819              		.cfi_endproc
 820              	.LFE72:
 822              		.section	.text.HAL_EXTI_GenerateSWI,"ax",%progbits
 823              		.align	1
 824              		.global	HAL_EXTI_GenerateSWI
 825              		.syntax unified
 826              		.thumb
 827              		.thumb_func
 828              		.fpu softvfp
 830              	HAL_EXTI_GenerateSWI:
 831              	.LVL68:
 832              	.LFB73:
 521:base/chip/Drivers/STM32F1xx_HAL_Driver/Src/stm32f1xx_hal_exti.c **** 
 522:base/chip/Drivers/STM32F1xx_HAL_Driver/Src/stm32f1xx_hal_exti.c **** /**
 523:base/chip/Drivers/STM32F1xx_HAL_Driver/Src/stm32f1xx_hal_exti.c ****   * @brief  Generate a software interrupt for a dedicated line.
 524:base/chip/Drivers/STM32F1xx_HAL_Driver/Src/stm32f1xx_hal_exti.c ****   * @param  hexti Exti handle.
 525:base/chip/Drivers/STM32F1xx_HAL_Driver/Src/stm32f1xx_hal_exti.c ****   * @retval None.
 526:base/chip/Drivers/STM32F1xx_HAL_Driver/Src/stm32f1xx_hal_exti.c ****   */
 527:base/chip/Drivers/STM32F1xx_HAL_Driver/Src/stm32f1xx_hal_exti.c **** void HAL_EXTI_GenerateSWI(EXTI_HandleTypeDef *hexti)
 528:base/chip/Drivers/STM32F1xx_HAL_Driver/Src/stm32f1xx_hal_exti.c **** {
 833              		.loc 1 528 1 is_stmt 1 view -0
 834              		.cfi_startproc
 835              		@ args = 0, pretend = 0, frame = 0
 836              		@ frame_needed = 0, uses_anonymous_args = 0
 837              		@ link register save eliminated.
 529:base/chip/Drivers/STM32F1xx_HAL_Driver/Src/stm32f1xx_hal_exti.c ****   uint32_t maskline;
 838              		.loc 1 529 3 view .LVU268
 530:base/chip/Drivers/STM32F1xx_HAL_Driver/Src/stm32f1xx_hal_exti.c **** 
 531:base/chip/Drivers/STM32F1xx_HAL_Driver/Src/stm32f1xx_hal_exti.c ****   /* Check parameters */
 532:base/chip/Drivers/STM32F1xx_HAL_Driver/Src/stm32f1xx_hal_exti.c ****   assert_param(IS_EXTI_LINE(hexti->Line));
 839              		.loc 1 532 3 view .LVU269
 533:base/chip/Drivers/STM32F1xx_HAL_Driver/Src/stm32f1xx_hal_exti.c ****   assert_param(IS_EXTI_CONFIG_LINE(hexti->Line));
 840              		.loc 1 533 3 view .LVU270
 534:base/chip/Drivers/STM32F1xx_HAL_Driver/Src/stm32f1xx_hal_exti.c **** 
 535:base/chip/Drivers/STM32F1xx_HAL_Driver/Src/stm32f1xx_hal_exti.c ****   /* Compute line mask */
 536:base/chip/Drivers/STM32F1xx_HAL_Driver/Src/stm32f1xx_hal_exti.c ****   maskline = (1uL << (hexti->Line & EXTI_PIN_MASK));
 841              		.loc 1 536 3 view .LVU271
ARM GAS  /tmp/ccXI2Tmb.s 			page 26


 842              		.loc 1 536 28 is_stmt 0 view .LVU272
 843 0000 0268     		ldr	r2, [r0]
 844              		.loc 1 536 35 view .LVU273
 845 0002 02F01F02 		and	r2, r2, #31
 846              		.loc 1 536 12 view .LVU274
 847 0006 0123     		movs	r3, #1
 848 0008 9340     		lsls	r3, r3, r2
 849              	.LVL69:
 537:base/chip/Drivers/STM32F1xx_HAL_Driver/Src/stm32f1xx_hal_exti.c **** 
 538:base/chip/Drivers/STM32F1xx_HAL_Driver/Src/stm32f1xx_hal_exti.c ****   /* Generate Software interrupt */
 539:base/chip/Drivers/STM32F1xx_HAL_Driver/Src/stm32f1xx_hal_exti.c ****   EXTI->SWIER = maskline;
 850              		.loc 1 539 3 is_stmt 1 view .LVU275
 851              		.loc 1 539 15 is_stmt 0 view .LVU276
 852 000a 014A     		ldr	r2, .L65
 853 000c 1361     		str	r3, [r2, #16]
 540:base/chip/Drivers/STM32F1xx_HAL_Driver/Src/stm32f1xx_hal_exti.c **** }
 854              		.loc 1 540 1 view .LVU277
 855 000e 7047     		bx	lr
 856              	.L66:
 857              		.align	2
 858              	.L65:
 859 0010 00040140 		.word	1073808384
 860              		.cfi_endproc
 861              	.LFE73:
 863              		.text
 864              	.Letext0:
 865              		.file 2 "/usr/arm-none-eabi/include/machine/_default_types.h"
 866              		.file 3 "/usr/arm-none-eabi/include/sys/_stdint.h"
 867              		.file 4 "base/chip/Drivers/CMSIS/Device/ST/STM32F1xx/Include/stm32f103x6.h"
 868              		.file 5 "base/chip/Drivers/STM32F1xx_HAL_Driver/Inc/stm32f1xx_hal_def.h"
 869              		.file 6 "base/chip/Drivers/STM32F1xx_HAL_Driver/Inc/stm32f1xx_hal_exti.h"
ARM GAS  /tmp/ccXI2Tmb.s 			page 27

